
========================================================================

** ELF Header Information

    File Name: .\Objects\SOC_software.axf

    Machine class: ELFCLASS32 (32-bit)
    Data encoding: ELFDATA2LSB (Little endian)
    Header version: EV_CURRENT (Current version)
    Operating System ABI: none
    ABI Version: 0
    File Type: ET_EXEC (Executable) (2)
    Machine: EM_ARM (ARM)

    Image Entry point: 0x00000051
    Flags: EF_ARM_HASENTRY + EF_ARM_ABI_FLOAT_SOFT (0x05000202)

    ARM ELF revision: 5 (ABI version 2)

    Conforms to Soft float procedure-call standard

    Built with
    Component: ARM Compiler 5.06 update 7 (build 960) Tool: armasm [4d35fa]
    Component: ARM Compiler 5.06 update 7 (build 960) Tool: armlink [4d3601]

    Header size: 52 bytes (0x34)
    Program header entry size: 32 bytes (0x20)
    Section header entry size: 40 bytes (0x28)

    Program header entries: 1
    Section header entries: 16

    Program header offset: 78540 (0x000132cc)
    Section header offset: 78572 (0x000132ec)

    Section header string table index: 15

========================================================================

** Program header #0

    Type          : PT_LOAD (1)
    File Offset   : 52 (0x34)
    Virtual Addr  : 0x00000000
    Physical Addr : 0x00000000
    Size in file  : 17132 bytes (0x42ec)
    Size in memory: 58192 bytes (0xe350)
    Flags         : PF_X + PF_W + PF_R + PF_ARM_ENTRY (0x80000007)
    Alignment     : 8


========================================================================

** Section #1

    Name        : ER_IROM1
    Type        : SHT_PROGBITS (0x00000001)
    Flags       : SHF_ALLOC + SHF_EXECINSTR (0x00000006)
    Addr        : 0x00000000
    File Offset : 52 (0x34)
    Size        : 17104 bytes (0x42d0)
    Link        : SHN_UNDEF
    Info        : 0
    Alignment   : 4
    Entry Size  : 0

    $d.realdata
    RESET
    __Vectors
        0x00000000:    2000a080    ...     DCD    536912000
        0x00000004:    000000ed    ....    DCD    237
        0x00000008:    000000f5    ....    DCD    245
        0x0000000c:    000000fd    ....    DCD    253
        0x00000010:    00000105    ....    DCD    261
        0x00000014:    0000010d    ....    DCD    269
        0x00000018:    00000115    ....    DCD    277
        0x0000001c:    00000000    ....    DCD    0
        0x00000020:    00000000    ....    DCD    0
        0x00000024:    00000000    ....    DCD    0
        0x00000028:    00000000    ....    DCD    0
        0x0000002c:    0000011d    ....    DCD    285
        0x00000030:    00000125    %...    DCD    293
        0x00000034:    00000000    ....    DCD    0
        0x00000038:    0000012d    -...    DCD    301
        0x0000003c:    00000135    5...    DCD    309
        0x00000040:    0000013d    =...    DCD    317
        0x00000044:    00000145    E...    DCD    325
        0x00000048:    0000014d    M...    DCD    333
        0x0000004c:    00000155    U...    DCD    341
    $t
    !!!main
    __Vectors_End
    __main
        0x00000050:    f000f802    ....    BL       __scatterload ; 0x58
        0x00000054:    f000f83a    ..:.    BL       __rt_entry ; 0xcc
    !!!scatter
    __scatterload
    __scatterload_rt2
    __scatterload_rt2_thumb_only
        0x00000058:    a00a        ..      ADR      r0,{pc}+0x2c ; 0x84
        0x0000005a:    e8900c00    ....    LDM      r0,{r10,r11}
        0x0000005e:    4482        .D      ADD      r10,r10,r0
        0x00000060:    4483        .D      ADD      r11,r11,r0
        0x00000062:    f1aa0701    ....    SUB      r7,r10,#1
    __scatterload_null
        0x00000066:    45da        .E      CMP      r10,r11
        0x00000068:    d101        ..      BNE      0x6e ; __scatterload_null + 8
        0x0000006a:    f000f82f    ../.    BL       __rt_entry ; 0xcc
        0x0000006e:    f2af0e09    ....    ADR      lr,{pc}-7 ; 0x67
        0x00000072:    e8ba000f    ....    LDM      r10!,{r0-r3}
        0x00000076:    f0130f01    ....    TST      r3,#1
        0x0000007a:    bf18        ..      IT       NE
        0x0000007c:    1afb        ..      SUBNE    r3,r7,r3
        0x0000007e:    f0430301    C...    ORR      r3,r3,#1
        0x00000082:    4718        .G      BX       r3
    $d
        0x00000084:    0000422c    ,B..    DCD    16940
        0x00000088:    0000424c    LB..    DCD    16972
    $t
    !!handler_copy
    __scatterload_copy
        0x0000008c:    3a10        .:      SUBS     r2,r2,#0x10
        0x0000008e:    bf24        $.      ITT      CS
        0x00000090:    c878        x.      LDMCS    r0!,{r3-r6}
        0x00000092:    c178        x.      STMCS    r1!,{r3-r6}
        0x00000094:    d8fa        ..      BHI      __scatterload_copy ; 0x8c
        0x00000096:    0752        R.      LSLS     r2,r2,#29
        0x00000098:    bf24        $.      ITT      CS
        0x0000009a:    c830        0.      LDMCS    r0!,{r4,r5}
        0x0000009c:    c130        0.      STMCS    r1!,{r4,r5}
        0x0000009e:    bf44        D.      ITT      MI
        0x000000a0:    6804        .h      LDRMI    r4,[r0,#0]
        0x000000a2:    600c        .`      STRMI    r4,[r1,#0]
        0x000000a4:    4770        pG      BX       lr
        0x000000a6:    0000        ..      MOVS     r0,r0
    !!handler_zi
    __scatterload_zeroinit
        0x000000a8:    2300        .#      MOVS     r3,#0
        0x000000aa:    2400        .$      MOVS     r4,#0
        0x000000ac:    2500        .%      MOVS     r5,#0
        0x000000ae:    2600        .&      MOVS     r6,#0
        0x000000b0:    3a10        .:      SUBS     r2,r2,#0x10
        0x000000b2:    bf28        (.      IT       CS
        0x000000b4:    c178        x.      STMCS    r1!,{r3-r6}
        0x000000b6:    d8fb        ..      BHI      0xb0 ; __scatterload_zeroinit + 8
        0x000000b8:    0752        R.      LSLS     r2,r2,#29
        0x000000ba:    bf28        (.      IT       CS
        0x000000bc:    c130        0.      STMCS    r1!,{r4,r5}
        0x000000be:    bf48        H.      IT       MI
        0x000000c0:    600b        .`      STRMI    r3,[r1,#0]
        0x000000c2:    4770        pG      BX       lr
    .ARM.Collect$$libinit$$00000000
    __rt_lib_init
        0x000000c4:    b51f        ..      PUSH     {r0-r4,lr}
    .ARM.Collect$$libinit$$00000002
    .ARM.Collect$$libinit$$00000004
    .ARM.Collect$$libinit$$0000000A
    .ARM.Collect$$libinit$$0000000C
    .ARM.Collect$$libinit$$0000000E
    .ARM.Collect$$libinit$$00000011
    .ARM.Collect$$libinit$$00000013
    .ARM.Collect$$libinit$$00000015
    .ARM.Collect$$libinit$$00000017
    .ARM.Collect$$libinit$$00000019
    .ARM.Collect$$libinit$$0000001B
    .ARM.Collect$$libinit$$0000001D
    .ARM.Collect$$libinit$$0000001F
    .ARM.Collect$$libinit$$00000021
    .ARM.Collect$$libinit$$00000023
    .ARM.Collect$$libinit$$00000025
    .ARM.Collect$$libinit$$0000002C
    .ARM.Collect$$libinit$$0000002E
    .ARM.Collect$$libinit$$00000030
    .ARM.Collect$$libinit$$00000032
    .ARM.Collect$$libinit$$00000033
    __rt_lib_init_alloca_1
    __rt_lib_init_argv_1
    __rt_lib_init_atexit_1
    __rt_lib_init_clock_1
    __rt_lib_init_cpp_1
    __rt_lib_init_exceptions_1
    __rt_lib_init_fp_1
    __rt_lib_init_fp_trap_1
    __rt_lib_init_getenv_1
    __rt_lib_init_heap_1
    __rt_lib_init_lc_collate_1
    __rt_lib_init_lc_ctype_1
    __rt_lib_init_lc_monetary_1
    __rt_lib_init_lc_numeric_1
    __rt_lib_init_lc_time_1
    __rt_lib_init_preinit_1
    __rt_lib_init_rand_1
    __rt_lib_init_return
    __rt_lib_init_signal_1
    __rt_lib_init_stdio_1
    __rt_lib_init_user_alloc_1
        0x000000c6:    bd1f        ..      POP      {r0-r4,pc}
    .ARM.Collect$$libshutdown$$00000000
    __rt_lib_shutdown
        0x000000c8:    b510        ..      PUSH     {r4,lr}
    .ARM.Collect$$libshutdown$$00000002
    .ARM.Collect$$libshutdown$$00000004
    .ARM.Collect$$libshutdown$$00000006
    .ARM.Collect$$libshutdown$$00000009
    .ARM.Collect$$libshutdown$$0000000C
    .ARM.Collect$$libshutdown$$0000000E
    .ARM.Collect$$libshutdown$$00000011
    .ARM.Collect$$libshutdown$$00000012
    __rt_lib_shutdown_cpp_1
    __rt_lib_shutdown_fini_1
    __rt_lib_shutdown_fp_trap_1
    __rt_lib_shutdown_heap_1
    __rt_lib_shutdown_return
    __rt_lib_shutdown_signal_1
    __rt_lib_shutdown_stdio_1
    __rt_lib_shutdown_user_alloc_1
        0x000000ca:    bd10        ..      POP      {r4,pc}
    .ARM.Collect$$rtentry$$00000000
    .ARM.Collect$$rtentry$$00000002
    .ARM.Collect$$rtentry$$00000004
    __rt_entry
    __rt_entry_presh_1
    __rt_entry_sh
        0x000000cc:    f000f892    ....    BL       __user_setup_stackheap ; 0x1f4
        0x000000d0:    4611        .F      MOV      r1,r2
    .ARM.Collect$$rtentry$$00000009
    .ARM.Collect$$rtentry$$0000000A
    __rt_entry_li
    __rt_entry_postsh_1
        0x000000d2:    f7fffff7    ....    BL       __rt_lib_init ; 0xc4
    .ARM.Collect$$rtentry$$0000000C
    .ARM.Collect$$rtentry$$0000000D
    __rt_entry_main
    __rt_entry_postli_1
        0x000000d6:    f001f973    ..s.    BL       main ; 0x13c0
        0x000000da:    f000f8c4    ....    BL       exit ; 0x266
    .ARM.Collect$$rtexit$$00000000
    __rt_exit
        0x000000de:    b403        ..      PUSH     {r0,r1}
    .ARM.Collect$$rtexit$$00000002
    .ARM.Collect$$rtexit$$00000003
    __rt_exit_ls
    __rt_exit_prels_1
        0x000000e0:    f7fffff2    ....    BL       __rt_lib_shutdown ; 0xc8
    .ARM.Collect$$rtexit$$00000004
    __rt_exit_exit
        0x000000e4:    bc03        ..      POP      {r0,r1}
        0x000000e6:    f001f939    ..9.    BL       _sys_exit ; 0x135c
        0x000000ea:    0000        ..      MOVS     r0,r0
    .text
    Reset_Handler
        0x000000ec:    481e        .H      LDR      r0,[pc,#120] ; [0x168] = 0x1321
        0x000000ee:    4780        .G      BLX      r0
        0x000000f0:    481e        .H      LDR      r0,[pc,#120] ; [0x16c] = 0x13c1
        0x000000f2:    4700        .G      BX       r0
    NMI_Handler
        0x000000f4:    b500        ..      PUSH     {lr}
        0x000000f6:    f001f87f    ....    BL       NMIHandler ; 0x11f8
        0x000000fa:    bd00        ..      POP      {pc}
    HardFault_Handler
        0x000000fc:    b500        ..      PUSH     {lr}
        0x000000fe:    f000fa9b    ....    BL       HardFaultHandler ; 0x638
        0x00000102:    bd00        ..      POP      {pc}
    MemManage_Handler
        0x00000104:    b500        ..      PUSH     {lr}
        0x00000106:    f001f876    ..v.    BL       MemManageHandler ; 0x11f6
        0x0000010a:    bd00        ..      POP      {pc}
    BusFault_Handler
        0x0000010c:    b500        ..      PUSH     {lr}
        0x0000010e:    f000f8b7    ....    BL       BusFaultHandler ; 0x280
        0x00000112:    bd00        ..      POP      {pc}
    UsageFault_Handler
        0x00000114:    b500        ..      PUSH     {lr}
        0x00000116:    f001f920    .. .    BL       UsageFaultHandler ; 0x135a
        0x0000011a:    bd00        ..      POP      {pc}
    SVC_Handler
        0x0000011c:    b500        ..      PUSH     {lr}
        0x0000011e:    f001f8b0    ....    BL       SVCHandler ; 0x1282
        0x00000122:    bd00        ..      POP      {pc}
    DebugMon_Handler
        0x00000124:    b500        ..      PUSH     {lr}
        0x00000126:    f000f8ac    ....    BL       DebugMonHandler ; 0x282
        0x0000012a:    bd00        ..      POP      {pc}
    PendSV_Handler
        0x0000012c:    b500        ..      PUSH     {lr}
        0x0000012e:    f001f8a7    ....    BL       PendSVHandler ; 0x1280
        0x00000132:    bd00        ..      POP      {pc}
    SysTick_Handler
        0x00000134:    b500        ..      PUSH     {lr}
        0x00000136:    f001f8f1    ....    BL       SysTickHandler ; 0x131c
        0x0000013a:    bd00        ..      POP      {pc}
    UARTRX_Handler
        0x0000013c:    b500        ..      PUSH     {lr}
        0x0000013e:    f001f90a    ....    BL       UARTRXHandler ; 0x1356
        0x00000142:    bd00        ..      POP      {pc}
    UARTTX_Handler
        0x00000144:    b500        ..      PUSH     {lr}
        0x00000146:    f001f907    ....    BL       UARTTXHandler ; 0x1358
        0x0000014a:    bd00        ..      POP      {pc}
    UARTOVR_Handler
        0x0000014c:    b500        ..      PUSH     {lr}
        0x0000014e:    f001f901    ....    BL       UARTOVRHandler ; 0x1354
        0x00000152:    bd00        ..      POP      {pc}
    EXTI0_IRQHandler
        0x00000154:    b500        ..      PUSH     {lr}
        0x00000156:    f000f8a7    ....    BL       GPIOHandler ; 0x2a8
        0x0000015a:    bd00        ..      POP      {pc}
    __user_initial_stackheap
        0x0000015c:    4804        .H      LDR      r0,[pc,#16] ; [0x170] = 0x20000080
        0x0000015e:    4905        .I      LDR      r1,[pc,#20] ; [0x174] = 0x2000a080
        0x00000160:    4a05        .J      LDR      r2,[pc,#20] ; [0x178] = 0x20005080
        0x00000162:    4b06        .K      LDR      r3,[pc,#24] ; [0x17c] = 0x20005080
        0x00000164:    4770        pG      BX       lr
    $d
        0x00000166:    0000        ..      DCW    0
        0x00000168:    00001321    !...    DCD    4897
        0x0000016c:    000013c1    ....    DCD    5057
        0x00000170:    20000080    ...     DCD    536871040
        0x00000174:    2000a080    ...     DCD    536912000
        0x00000178:    20005080    .P.     DCD    536891520
        0x0000017c:    20005080    .P.     DCD    536891520
    $t
    .text
    __2printf
        0x00000180:    b40f        ..      PUSH     {r0-r3}
        0x00000182:    4904        .I      LDR      r1,[pc,#16] ; [0x194] = 0x20000010
        0x00000184:    b510        ..      PUSH     {r4,lr}
        0x00000186:    aa03        ..      ADD      r2,sp,#0xc
        0x00000188:    9802        ..      LDR      r0,[sp,#8]
        0x0000018a:    f000f809    ....    BL       _printf_char_file ; 0x1a0
        0x0000018e:    bc10        ..      POP      {r4}
        0x00000190:    f85dfb14    ]...    LDR      pc,[sp],#0x14
    $d
        0x00000194:    20000010    ...     DCD    536870928
    $t
    .text
    __use_two_region_memory
        0x00000198:    4770        pG      BX       lr
    __rt_heap_escrow$2region
        0x0000019a:    4770        pG      BX       lr
    __rt_heap_expand$2region
        0x0000019c:    4770        pG      BX       lr
        0x0000019e:    0000        ..      MOVS     r0,r0
    .text
    _printf_char_file
        0x000001a0:    4b07        .K      LDR      r3,[pc,#28] ; [0x1c0] = 0x11f7
        0x000001a2:    b570        p.      PUSH     {r4-r6,lr}
        0x000001a4:    460d        .F      MOV      r5,r1
        0x000001a6:    447b        {D      ADD      r3,r3,pc
        0x000001a8:    f000f811    ....    BL       _printf_char_common ; 0x1ce
        0x000001ac:    4604        .F      MOV      r4,r0
        0x000001ae:    4628        (F      MOV      r0,r5
        0x000001b0:    f001f8f2    ....    BL       ferror ; 0x1398
        0x000001b4:    b110        ..      CBZ      r0,0x1bc ; _printf_char_file + 28
        0x000001b6:    f04f30ff    O..0    MOV      r0,#0xffffffff
        0x000001ba:    bd70        p.      POP      {r4-r6,pc}
        0x000001bc:    4620         F      MOV      r0,r4
        0x000001be:    bd70        p.      POP      {r4-r6,pc}
    $d
        0x000001c0:    000011f7    ....    DCD    4599
    $t
    .text
    _printf_input_char
        0x000001c4:    6901        .i      LDR      r1,[r0,#0x10]
        0x000001c6:    1c4a        J.      ADDS     r2,r1,#1
        0x000001c8:    6102        .a      STR      r2,[r0,#0x10]
        0x000001ca:    7808        .x      LDRB     r0,[r1,#0]
        0x000001cc:    4770        pG      BX       lr
    _printf_char_common
        0x000001ce:    b500        ..      PUSH     {lr}
        0x000001d0:    b08f        ..      SUB      sp,sp,#0x3c
        0x000001d2:    e9cd3101    ...1    STRD     r3,r1,[sp,#4]
        0x000001d6:    2100        .!      MOVS     r1,#0
        0x000001d8:    9105        ..      STR      r1,[sp,#0x14]
        0x000001da:    4905        .I      LDR      r1,[pc,#20] ; [0x1f0] = 0xffffffe5
        0x000001dc:    4479        yD      ADD      r1,r1,pc
        0x000001de:    e9cd1003    ....    STRD     r1,r0,[sp,#0xc]
        0x000001e2:    4611        .F      MOV      r1,r2
        0x000001e4:    4668        hF      MOV      r0,sp
        0x000001e6:    f000f82a    ..*.    BL       __printf ; 0x23e
        0x000001ea:    b00f        ..      ADD      sp,sp,#0x3c
        0x000001ec:    bd00        ..      POP      {pc}
    $d
        0x000001ee:    0000        ..      DCW    0
        0x000001f0:    ffffffe5    ....    DCD    4294967269
    $t
    .text
    __user_setup_stackheap
        0x000001f4:    4675        uF      MOV      r5,lr
        0x000001f6:    f000f83f    ..?.    BL       __user_libspace ; 0x278
        0x000001fa:    46ae        .F      MOV      lr,r5
        0x000001fc:    0005        ..      MOVS     r5,r0
        0x000001fe:    4669        iF      MOV      r1,sp
        0x00000200:    4653        SF      MOV      r3,r10
        0x00000202:    f0200007     ...    BIC      r0,r0,#7
        0x00000206:    4685        .F      MOV      sp,r0
        0x00000208:    b018        ..      ADD      sp,sp,#0x60
        0x0000020a:    b520         .      PUSH     {r5,lr}
        0x0000020c:    f7ffffa6    ....    BL       __user_initial_stackheap ; 0x15c
        0x00000210:    e8bd4020    .. @    POP      {r5,lr}
        0x00000214:    f04f0600    O...    MOV      r6,#0
        0x00000218:    f04f0700    O...    MOV      r7,#0
        0x0000021c:    f04f0800    O...    MOV      r8,#0
        0x00000220:    f04f0b00    O...    MOV      r11,#0
        0x00000224:    f0210107    !...    BIC      r1,r1,#7
        0x00000228:    46ac        .F      MOV      r12,r5
        0x0000022a:    e8ac09c0    ....    STM      r12!,{r6-r8,r11}
        0x0000022e:    e8ac09c0    ....    STM      r12!,{r6-r8,r11}
        0x00000232:    e8ac09c0    ....    STM      r12!,{r6-r8,r11}
        0x00000236:    e8ac09c0    ....    STM      r12!,{r6-r8,r11}
        0x0000023a:    468d        .F      MOV      sp,r1
        0x0000023c:    4770        pG      BX       lr
    .text
    __printf
        0x0000023e:    e92d41f0    -..A    PUSH     {r4-r8,lr}
        0x00000242:    4606        .F      MOV      r6,r0
        0x00000244:    2400        .$      MOVS     r4,#0
        0x00000246:    e9d67001    ...p    LDRD     r7,r0,[r6,#4]
        0x0000024a:    68f5        .h      LDR      r5,[r6,#0xc]
        0x0000024c:    4680        .F      MOV      r8,r0
        0x0000024e:    4630        0F      MOV      r0,r6
        0x00000250:    e003        ..      B        0x25a ; __printf + 28
        0x00000252:    4641        AF      MOV      r1,r8
        0x00000254:    47b8        .G      BLX      r7
        0x00000256:    1c64        d.      ADDS     r4,r4,#1
        0x00000258:    4630        0F      MOV      r0,r6
        0x0000025a:    47a8        .G      BLX      r5
        0x0000025c:    2800        .(      CMP      r0,#0
        0x0000025e:    d1f8        ..      BNE      0x252 ; __printf + 20
        0x00000260:    4620         F      MOV      r0,r4
        0x00000262:    e8bd81f0    ....    POP      {r4-r8,pc}
    .text
    exit
        0x00000266:    b510        ..      PUSH     {r4,lr}
        0x00000268:    4604        .F      MOV      r4,r0
        0x0000026a:    f3af8000    ....    NOP.W    
        0x0000026e:    4620         F      MOV      r0,r4
        0x00000270:    e8bd4010    ...@    POP      {r4,lr}
        0x00000274:    f7ffbf33    ..3.    B.W      __rt_exit ; 0xde
    .text
    __user_libspace
    __user_perproc_libspace
    __user_perthread_libspace
        0x00000278:    4800        .H      LDR      r0,[pc,#0] ; [0x27c] = 0x2000001c
        0x0000027a:    4770        pG      BX       lr
    $d
        0x0000027c:    2000001c    ...     DCD    536870940
    $t
    i.BusFaultHandler
    BusFaultHandler
        0x00000280:    4770        pG      BX       lr
    i.DebugMonHandler
    DebugMonHandler
        0x00000282:    4770        pG      BX       lr
    i.EXTIX_Init
    EXTIX_Init
        0x00000284:    b508        ..      PUSH     {r3,lr}
        0x00000286:    2003        .       MOVS     r0,#3
        0x00000288:    f88d0000    ....    STRB     r0,[sp,#0]
        0x0000028c:    2002        .       MOVS     r0,#2
        0x0000028e:    f88d0001    ....    STRB     r0,[sp,#1]
        0x00000292:    2003        .       MOVS     r0,#3
        0x00000294:    f88d0002    ....    STRB     r0,[sp,#2]
        0x00000298:    2001        .       MOVS     r0,#1
        0x0000029a:    f88d0003    ....    STRB     r0,[sp,#3]
        0x0000029e:    4668        hF      MOV      r0,sp
        0x000002a0:    f000ffac    ....    BL       NVIC_Init ; 0x11fc
        0x000002a4:    bd08        ..      POP      {r3,pc}
        0x000002a6:    0000        ..      MOVS     r0,r0
    i.GPIOHandler
    GPIOHandler
        0x000002a8:    b510        ..      PUSH     {r4,lr}
        0x000002aa:    f44f70fa    O..p    MOV      r0,#0x1f4
        0x000002ae:    f001f869    ..i.    BL       delay_ms ; 0x1384
        0x000002b2:    f64f70ff    O..p    MOV      r0,#0xffff
        0x000002b6:    f04f41a0    O..A    MOV      r1,#0x50000000
        0x000002ba:    6388        .c      STR      r0,[r1,#0x38]
        0x000002bc:    48be        .H      LDR      r0,[pc,#760] ; [0x5b8] = 0x2000000d
        0x000002be:    7800        .x      LDRB     r0,[r0,#0]
        0x000002c0:    2800        .(      CMP      r0,#0
        0x000002c2:    d14d        M.      BNE      0x360 ; GPIOHandler + 184
        0x000002c4:    2006        .       MOVS     r0,#6
        0x000002c6:    f000f998    ....    BL       GPIO_input ; 0x5fa
        0x000002ca:    b958        X.      CBNZ     r0,0x2e4 ; GPIOHandler + 60
        0x000002cc:    bf00        ..      NOP      
        0x000002ce:    2006        .       MOVS     r0,#6
        0x000002d0:    f000f993    ....    BL       GPIO_input ; 0x5fa
        0x000002d4:    2800        .(      CMP      r0,#0
        0x000002d6:    d0fa        ..      BEQ      0x2ce ; GPIOHandler + 38
        0x000002d8:    2200        ."      MOVS     r2,#0
        0x000002da:    4611        .F      MOV      r1,r2
        0x000002dc:    2005        .       MOVS     r0,#5
        0x000002de:    f000fc25    ..%.    BL       LCD_show_arrow ; 0xb2c
        0x000002e2:    e164        d.      B        0x5ae ; GPIOHandler + 774
        0x000002e4:    2005        .       MOVS     r0,#5
        0x000002e6:    f000f988    ....    BL       GPIO_input ; 0x5fa
        0x000002ea:    b958        X.      CBNZ     r0,0x304 ; GPIOHandler + 92
        0x000002ec:    bf00        ..      NOP      
        0x000002ee:    2005        .       MOVS     r0,#5
        0x000002f0:    f000f983    ....    BL       GPIO_input ; 0x5fa
        0x000002f4:    2800        .(      CMP      r0,#0
        0x000002f6:    d0fa        ..      BEQ      0x2ee ; GPIOHandler + 70
        0x000002f8:    2200        ."      MOVS     r2,#0
        0x000002fa:    2101        .!      MOVS     r1,#1
        0x000002fc:    2005        .       MOVS     r0,#5
        0x000002fe:    f000fc15    ....    BL       LCD_show_arrow ; 0xb2c
        0x00000302:    e154        T.      B        0x5ae ; GPIOHandler + 774
        0x00000304:    2004        .       MOVS     r0,#4
        0x00000306:    f000f978    ..x.    BL       GPIO_input ; 0x5fa
        0x0000030a:    2800        .(      CMP      r0,#0
        0x0000030c:    d1e9        ..      BNE      0x2e2 ; GPIOHandler + 58
        0x0000030e:    bf00        ..      NOP      
        0x00000310:    2004        .       MOVS     r0,#4
        0x00000312:    f000f972    ..r.    BL       GPIO_input ; 0x5fa
        0x00000316:    2800        .(      CMP      r0,#0
        0x00000318:    d0fa        ..      BEQ      0x310 ; GPIOHandler + 104
        0x0000031a:    48a8        .H      LDR      r0,[pc,#672] ; [0x5bc] = 0x2000000e
        0x0000031c:    7800        .x      LDRB     r0,[r0,#0]
        0x0000031e:    2801        .(      CMP      r0,#1
        0x00000320:    d102        ..      BNE      0x328 ; GPIOHandler + 128
        0x00000322:    f000fd55    ..U.    BL       LCD_show_ui01 ; 0xdd0
        0x00000326:    e142        B.      B        0x5ae ; GPIOHandler + 774
        0x00000328:    48a4        .H      LDR      r0,[pc,#656] ; [0x5bc] = 0x2000000e
        0x0000032a:    7800        .x      LDRB     r0,[r0,#0]
        0x0000032c:    2802        .(      CMP      r0,#2
        0x0000032e:    d102        ..      BNE      0x336 ; GPIOHandler + 142
        0x00000330:    f000fd90    ....    BL       LCD_show_ui02 ; 0xe54
        0x00000334:    e13b        ;.      B        0x5ae ; GPIOHandler + 774
        0x00000336:    48a1        .H      LDR      r0,[pc,#644] ; [0x5bc] = 0x2000000e
        0x00000338:    7800        .x      LDRB     r0,[r0,#0]
        0x0000033a:    2803        .(      CMP      r0,#3
        0x0000033c:    d102        ..      BNE      0x344 ; GPIOHandler + 156
        0x0000033e:    f000fdd5    ....    BL       LCD_show_ui03 ; 0xeec
        0x00000342:    e134        4.      B        0x5ae ; GPIOHandler + 774
        0x00000344:    489d        .H      LDR      r0,[pc,#628] ; [0x5bc] = 0x2000000e
        0x00000346:    7800        .x      LDRB     r0,[r0,#0]
        0x00000348:    2804        .(      CMP      r0,#4
        0x0000034a:    d102        ..      BNE      0x352 ; GPIOHandler + 170
        0x0000034c:    f000ffd2    ....    BL       SmartCamera_reset ; 0x12f4
        0x00000350:    e12d        -.      B        0x5ae ; GPIOHandler + 774
        0x00000352:    489a        .H      LDR      r0,[pc,#616] ; [0x5bc] = 0x2000000e
        0x00000354:    7800        .x      LDRB     r0,[r0,#0]
        0x00000356:    2805        .(      CMP      r0,#5
        0x00000358:    d1c3        ..      BNE      0x2e2 ; GPIOHandler + 58
        0x0000035a:    f000ffd5    ....    BL       SmartCamera_send_SYN ; 0x1308
        0x0000035e:    e126        &.      B        0x5ae ; GPIOHandler + 774
        0x00000360:    4895        .H      LDR      r0,[pc,#596] ; [0x5b8] = 0x2000000d
        0x00000362:    7800        .x      LDRB     r0,[r0,#0]
        0x00000364:    2801        .(      CMP      r0,#1
        0x00000366:    d137        7.      BNE      0x3d8 ; GPIOHandler + 304
        0x00000368:    2006        .       MOVS     r0,#6
        0x0000036a:    f000f946    ..F.    BL       GPIO_input ; 0x5fa
        0x0000036e:    b958        X.      CBNZ     r0,0x388 ; GPIOHandler + 224
        0x00000370:    bf00        ..      NOP      
        0x00000372:    2006        .       MOVS     r0,#6
        0x00000374:    f000f941    ..A.    BL       GPIO_input ; 0x5fa
        0x00000378:    2800        .(      CMP      r0,#0
        0x0000037a:    d0fa        ..      BEQ      0x372 ; GPIOHandler + 202
        0x0000037c:    2200        ."      MOVS     r2,#0
        0x0000037e:    4611        .F      MOV      r1,r2
        0x00000380:    2004        .       MOVS     r0,#4
        0x00000382:    f000fbd3    ....    BL       LCD_show_arrow ; 0xb2c
        0x00000386:    e112        ..      B        0x5ae ; GPIOHandler + 774
        0x00000388:    2005        .       MOVS     r0,#5
        0x0000038a:    f000f936    ..6.    BL       GPIO_input ; 0x5fa
        0x0000038e:    b958        X.      CBNZ     r0,0x3a8 ; GPIOHandler + 256
        0x00000390:    bf00        ..      NOP      
        0x00000392:    2005        .       MOVS     r0,#5
        0x00000394:    f000f931    ..1.    BL       GPIO_input ; 0x5fa
        0x00000398:    2800        .(      CMP      r0,#0
        0x0000039a:    d0fa        ..      BEQ      0x392 ; GPIOHandler + 234
        0x0000039c:    2200        ."      MOVS     r2,#0
        0x0000039e:    2101        .!      MOVS     r1,#1
        0x000003a0:    2004        .       MOVS     r0,#4
        0x000003a2:    f000fbc3    ....    BL       LCD_show_arrow ; 0xb2c
        0x000003a6:    e102        ..      B        0x5ae ; GPIOHandler + 774
        0x000003a8:    2004        .       MOVS     r0,#4
        0x000003aa:    f000f926    ..&.    BL       GPIO_input ; 0x5fa
        0x000003ae:    2800        .(      CMP      r0,#0
        0x000003b0:    d197        ..      BNE      0x2e2 ; GPIOHandler + 58
        0x000003b2:    bf00        ..      NOP      
        0x000003b4:    2004        .       MOVS     r0,#4
        0x000003b6:    f000f920    .. .    BL       GPIO_input ; 0x5fa
        0x000003ba:    2800        .(      CMP      r0,#0
        0x000003bc:    d0fa        ..      BEQ      0x3b4 ; GPIOHandler + 268
        0x000003be:    487f        .H      LDR      r0,[pc,#508] ; [0x5bc] = 0x2000000e
        0x000003c0:    7800        .x      LDRB     r0,[r0,#0]
        0x000003c2:    2804        .(      CMP      r0,#4
        0x000003c4:    d102        ..      BNE      0x3cc ; GPIOHandler + 292
        0x000003c6:    f000fbfb    ....    BL       LCD_show_item ; 0xbc0
        0x000003ca:    e0f0        ..      B        0x5ae ; GPIOHandler + 774
        0x000003cc:    487b        {H      LDR      r0,[pc,#492] ; [0x5bc] = 0x2000000e
        0x000003ce:    7800        .x      LDRB     r0,[r0,#0]
        0x000003d0:    1e40        @.      SUBS     r0,r0,#1
        0x000003d2:    497b        {I      LDR      r1,[pc,#492] ; [0x5c0] = 0x2000000c
        0x000003d4:    7008        .p      STRB     r0,[r1,#0]
        0x000003d6:    e0ea        ..      B        0x5ae ; GPIOHandler + 774
        0x000003d8:    4877        wH      LDR      r0,[pc,#476] ; [0x5b8] = 0x2000000d
        0x000003da:    7800        .x      LDRB     r0,[r0,#0]
        0x000003dc:    2802        .(      CMP      r0,#2
        0x000003de:    d169        i.      BNE      0x4b4 ; GPIOHandler + 524
        0x000003e0:    2006        .       MOVS     r0,#6
        0x000003e2:    f000f90a    ....    BL       GPIO_input ; 0x5fa
        0x000003e6:    b958        X.      CBNZ     r0,0x400 ; GPIOHandler + 344
        0x000003e8:    bf00        ..      NOP      
        0x000003ea:    2006        .       MOVS     r0,#6
        0x000003ec:    f000f905    ....    BL       GPIO_input ; 0x5fa
        0x000003f0:    2800        .(      CMP      r0,#0
        0x000003f2:    d0fa        ..      BEQ      0x3ea ; GPIOHandler + 322
        0x000003f4:    2200        ."      MOVS     r2,#0
        0x000003f6:    4611        .F      MOV      r1,r2
        0x000003f8:    2005        .       MOVS     r0,#5
        0x000003fa:    f000fb97    ....    BL       LCD_show_arrow ; 0xb2c
        0x000003fe:    e0d6        ..      B        0x5ae ; GPIOHandler + 774
        0x00000400:    2005        .       MOVS     r0,#5
        0x00000402:    f000f8fa    ....    BL       GPIO_input ; 0x5fa
        0x00000406:    b958        X.      CBNZ     r0,0x420 ; GPIOHandler + 376
        0x00000408:    bf00        ..      NOP      
        0x0000040a:    2005        .       MOVS     r0,#5
        0x0000040c:    f000f8f5    ....    BL       GPIO_input ; 0x5fa
        0x00000410:    2800        .(      CMP      r0,#0
        0x00000412:    d0fa        ..      BEQ      0x40a ; GPIOHandler + 354
        0x00000414:    2200        ."      MOVS     r2,#0
        0x00000416:    2101        .!      MOVS     r1,#1
        0x00000418:    2005        .       MOVS     r0,#5
        0x0000041a:    f000fb87    ....    BL       LCD_show_arrow ; 0xb2c
        0x0000041e:    e0c6        ..      B        0x5ae ; GPIOHandler + 774
        0x00000420:    2004        .       MOVS     r0,#4
        0x00000422:    f000f8ea    ....    BL       GPIO_input ; 0x5fa
        0x00000426:    b960        `.      CBNZ     r0,0x442 ; GPIOHandler + 410
        0x00000428:    bf00        ..      NOP      
        0x0000042a:    2004        .       MOVS     r0,#4
        0x0000042c:    f000f8e5    ....    BL       GPIO_input ; 0x5fa
        0x00000430:    2800        .(      CMP      r0,#0
        0x00000432:    d0fa        ..      BEQ      0x42a ; GPIOHandler + 386
        0x00000434:    4861        aH      LDR      r0,[pc,#388] ; [0x5bc] = 0x2000000e
        0x00000436:    7800        .x      LDRB     r0,[r0,#0]
        0x00000438:    2805        .(      CMP      r0,#5
        0x0000043a:    d189        ..      BNE      0x350 ; GPIOHandler + 168
        0x0000043c:    f000fbc0    ....    BL       LCD_show_item ; 0xbc0
        0x00000440:    e0b5        ..      B        0x5ae ; GPIOHandler + 774
        0x00000442:    2003        .       MOVS     r0,#3
        0x00000444:    f000f8d9    ....    BL       GPIO_input ; 0x5fa
        0x00000448:    bb98        ..      CBNZ     r0,0x4b2 ; GPIOHandler + 522
        0x0000044a:    bf00        ..      NOP      
        0x0000044c:    2003        .       MOVS     r0,#3
        0x0000044e:    f000f8d4    ....    BL       GPIO_input ; 0x5fa
        0x00000452:    2800        .(      CMP      r0,#0
        0x00000454:    d0fa        ..      BEQ      0x44c ; GPIOHandler + 420
        0x00000456:    4859        YH      LDR      r0,[pc,#356] ; [0x5bc] = 0x2000000e
        0x00000458:    7800        .x      LDRB     r0,[r0,#0]
        0x0000045a:    2801        .(      CMP      r0,#1
        0x0000045c:    d10a        ..      BNE      0x474 ; GPIOHandler + 460
        0x0000045e:    4859        YH      LDR      r0,[pc,#356] ; [0x5c4] = 0x40001000
        0x00000460:    6900        .i      LDR      r0,[r0,#0x10]
        0x00000462:    0a00        ..      LSRS     r0,r0,#8
        0x00000464:    1c40        @.      ADDS     r0,r0,#1
        0x00000466:    4957        WI      LDR      r1,[pc,#348] ; [0x5c4] = 0x40001000
        0x00000468:    6909        .i      LDR      r1,[r1,#0x10]
        0x0000046a:    f360210f    `..!    BFI      r1,r0,#8,#8
        0x0000046e:    4855        UH      LDR      r0,[pc,#340] ; [0x5c4] = 0x40001000
        0x00000470:    6101        .a      STR      r1,[r0,#0x10]
        0x00000472:    e029        ).      B        0x4c8 ; GPIOHandler + 544
        0x00000474:    4851        QH      LDR      r0,[pc,#324] ; [0x5bc] = 0x2000000e
        0x00000476:    7800        .x      LDRB     r0,[r0,#0]
        0x00000478:    2802        .(      CMP      r0,#2
        0x0000047a:    d10a        ..      BNE      0x492 ; GPIOHandler + 490
        0x0000047c:    4851        QH      LDR      r0,[pc,#324] ; [0x5c4] = 0x40001000
        0x0000047e:    6900        .i      LDR      r0,[r0,#0x10]
        0x00000480:    0c00        ..      LSRS     r0,r0,#16
        0x00000482:    1c40        @.      ADDS     r0,r0,#1
        0x00000484:    494f        OI      LDR      r1,[pc,#316] ; [0x5c4] = 0x40001000
        0x00000486:    6909        .i      LDR      r1,[r1,#0x10]
        0x00000488:    f3604117    `..A    BFI      r1,r0,#16,#8
        0x0000048c:    484d        MH      LDR      r0,[pc,#308] ; [0x5c4] = 0x40001000
        0x0000048e:    6101        .a      STR      r1,[r0,#0x10]
        0x00000490:    e01a        ..      B        0x4c8 ; GPIOHandler + 544
        0x00000492:    484a        JH      LDR      r0,[pc,#296] ; [0x5bc] = 0x2000000e
        0x00000494:    7800        .x      LDRB     r0,[r0,#0]
        0x00000496:    2803        .(      CMP      r0,#3
        0x00000498:    d10d        ..      BNE      0x4b6 ; GPIOHandler + 526
        0x0000049a:    484a        JH      LDR      r0,[pc,#296] ; [0x5c4] = 0x40001000
        0x0000049c:    6900        .i      LDR      r0,[r0,#0x10]
        0x0000049e:    2101        .!      MOVS     r1,#1
        0x000004a0:    eb016110    ...a    ADD      r1,r1,r0,LSR #24
        0x000004a4:    4847        GH      LDR      r0,[pc,#284] ; [0x5c4] = 0x40001000
        0x000004a6:    6900        .i      LDR      r0,[r0,#0x10]
        0x000004a8:    f361601f    a..`    BFI      r0,r1,#24,#8
        0x000004ac:    4945        EI      LDR      r1,[pc,#276] ; [0x5c4] = 0x40001000
        0x000004ae:    6108        .a      STR      r0,[r1,#0x10]
        0x000004b0:    e00a        ..      B        0x4c8 ; GPIOHandler + 544
        0x000004b2:    e00c        ..      B        0x4ce ; GPIOHandler + 550
        0x000004b4:    e050        P.      B        0x558 ; GPIOHandler + 688
        0x000004b6:    4841        AH      LDR      r0,[pc,#260] ; [0x5bc] = 0x2000000e
        0x000004b8:    7800        .x      LDRB     r0,[r0,#0]
        0x000004ba:    2804        .(      CMP      r0,#4
        0x000004bc:    d104        ..      BNE      0x4c8 ; GPIOHandler + 544
        0x000004be:    4841        AH      LDR      r0,[pc,#260] ; [0x5c4] = 0x40001000
        0x000004c0:    6940        @i      LDR      r0,[r0,#0x14]
        0x000004c2:    1c40        @.      ADDS     r0,r0,#1
        0x000004c4:    493f        ?I      LDR      r1,[pc,#252] ; [0x5c4] = 0x40001000
        0x000004c6:    6148        Ha      STR      r0,[r1,#0x14]
        0x000004c8:    f000fbd4    ....    BL       LCD_show_sys_set ; 0xc74
        0x000004cc:    e06f        o.      B        0x5ae ; GPIOHandler + 774
        0x000004ce:    2002        .       MOVS     r0,#2
        0x000004d0:    f000f893    ....    BL       GPIO_input ; 0x5fa
        0x000004d4:    2800        .(      CMP      r0,#0
        0x000004d6:    d16a        j.      BNE      0x5ae ; GPIOHandler + 774
        0x000004d8:    bf00        ..      NOP      
        0x000004da:    2002        .       MOVS     r0,#2
        0x000004dc:    f000f88d    ....    BL       GPIO_input ; 0x5fa
        0x000004e0:    2800        .(      CMP      r0,#0
        0x000004e2:    d0fa        ..      BEQ      0x4da ; GPIOHandler + 562
        0x000004e4:    4835        5H      LDR      r0,[pc,#212] ; [0x5bc] = 0x2000000e
        0x000004e6:    7800        .x      LDRB     r0,[r0,#0]
        0x000004e8:    2801        .(      CMP      r0,#1
        0x000004ea:    d10a        ..      BNE      0x502 ; GPIOHandler + 602
        0x000004ec:    4835        5H      LDR      r0,[pc,#212] ; [0x5c4] = 0x40001000
        0x000004ee:    6900        .i      LDR      r0,[r0,#0x10]
        0x000004f0:    0a00        ..      LSRS     r0,r0,#8
        0x000004f2:    1e40        @.      SUBS     r0,r0,#1
        0x000004f4:    4933        3I      LDR      r1,[pc,#204] ; [0x5c4] = 0x40001000
        0x000004f6:    6909        .i      LDR      r1,[r1,#0x10]
        0x000004f8:    f360210f    `..!    BFI      r1,r0,#8,#8
        0x000004fc:    4831        1H      LDR      r0,[pc,#196] ; [0x5c4] = 0x40001000
        0x000004fe:    6101        .a      STR      r1,[r0,#0x10]
        0x00000500:    e027        '.      B        0x552 ; GPIOHandler + 682
        0x00000502:    482e        .H      LDR      r0,[pc,#184] ; [0x5bc] = 0x2000000e
        0x00000504:    7800        .x      LDRB     r0,[r0,#0]
        0x00000506:    2802        .(      CMP      r0,#2
        0x00000508:    d10a        ..      BNE      0x520 ; GPIOHandler + 632
        0x0000050a:    482e        .H      LDR      r0,[pc,#184] ; [0x5c4] = 0x40001000
        0x0000050c:    6900        .i      LDR      r0,[r0,#0x10]
        0x0000050e:    0c00        ..      LSRS     r0,r0,#16
        0x00000510:    1e40        @.      SUBS     r0,r0,#1
        0x00000512:    492c        ,I      LDR      r1,[pc,#176] ; [0x5c4] = 0x40001000
        0x00000514:    6909        .i      LDR      r1,[r1,#0x10]
        0x00000516:    f3604117    `..A    BFI      r1,r0,#16,#8
        0x0000051a:    482a        *H      LDR      r0,[pc,#168] ; [0x5c4] = 0x40001000
        0x0000051c:    6101        .a      STR      r1,[r0,#0x10]
        0x0000051e:    e018        ..      B        0x552 ; GPIOHandler + 682
        0x00000520:    4826        &H      LDR      r0,[pc,#152] ; [0x5bc] = 0x2000000e
        0x00000522:    7800        .x      LDRB     r0,[r0,#0]
        0x00000524:    2803        .(      CMP      r0,#3
        0x00000526:    d10b        ..      BNE      0x540 ; GPIOHandler + 664
        0x00000528:    4826        &H      LDR      r0,[pc,#152] ; [0x5c4] = 0x40001000
        0x0000052a:    6900        .i      LDR      r0,[r0,#0x10]
        0x0000052c:    2101        .!      MOVS     r1,#1
        0x0000052e:    ebc16110    ...a    RSB      r1,r1,r0,LSR #24
        0x00000532:    4824        $H      LDR      r0,[pc,#144] ; [0x5c4] = 0x40001000
        0x00000534:    6900        .i      LDR      r0,[r0,#0x10]
        0x00000536:    f361601f    a..`    BFI      r0,r1,#24,#8
        0x0000053a:    4922        "I      LDR      r1,[pc,#136] ; [0x5c4] = 0x40001000
        0x0000053c:    6108        .a      STR      r0,[r1,#0x10]
        0x0000053e:    e008        ..      B        0x552 ; GPIOHandler + 682
        0x00000540:    481e        .H      LDR      r0,[pc,#120] ; [0x5bc] = 0x2000000e
        0x00000542:    7800        .x      LDRB     r0,[r0,#0]
        0x00000544:    2804        .(      CMP      r0,#4
        0x00000546:    d104        ..      BNE      0x552 ; GPIOHandler + 682
        0x00000548:    481e        .H      LDR      r0,[pc,#120] ; [0x5c4] = 0x40001000
        0x0000054a:    6940        @i      LDR      r0,[r0,#0x14]
        0x0000054c:    1e40        @.      SUBS     r0,r0,#1
        0x0000054e:    491d        .I      LDR      r1,[pc,#116] ; [0x5c4] = 0x40001000
        0x00000550:    6148        Ha      STR      r0,[r1,#0x14]
        0x00000552:    f000fb8f    ....    BL       LCD_show_sys_set ; 0xc74
        0x00000556:    e02a        *.      B        0x5ae ; GPIOHandler + 774
        0x00000558:    4817        .H      LDR      r0,[pc,#92] ; [0x5b8] = 0x2000000d
        0x0000055a:    7800        .x      LDRB     r0,[r0,#0]
        0x0000055c:    2803        .(      CMP      r0,#3
        0x0000055e:    d126        &.      BNE      0x5ae ; GPIOHandler + 774
        0x00000560:    2004        .       MOVS     r0,#4
        0x00000562:    f000f84a    ..J.    BL       GPIO_input ; 0x5fa
        0x00000566:    b948        H.      CBNZ     r0,0x57c ; GPIOHandler + 724
        0x00000568:    bf00        ..      NOP      
        0x0000056a:    2004        .       MOVS     r0,#4
        0x0000056c:    f000f845    ..E.    BL       GPIO_input ; 0x5fa
        0x00000570:    2800        .(      CMP      r0,#0
        0x00000572:    d0fa        ..      BEQ      0x56a ; GPIOHandler + 706
        0x00000574:    2001        .       MOVS     r0,#1
        0x00000576:    4914        .I      LDR      r1,[pc,#80] ; [0x5c8] = 0x2000000f
        0x00000578:    7008        .p      STRB     r0,[r1,#0]
        0x0000057a:    e018        ..      B        0x5ae ; GPIOHandler + 774
        0x0000057c:    2003        .       MOVS     r0,#3
        0x0000057e:    f000f83c    ..<.    BL       GPIO_input ; 0x5fa
        0x00000582:    b940        @.      CBNZ     r0,0x596 ; GPIOHandler + 750
        0x00000584:    bf00        ..      NOP      
        0x00000586:    2003        .       MOVS     r0,#3
        0x00000588:    f000f837    ..7.    BL       GPIO_input ; 0x5fa
        0x0000058c:    2800        .(      CMP      r0,#0
        0x0000058e:    d0fa        ..      BEQ      0x586 ; GPIOHandler + 734
        0x00000590:    f000feb0    ....    BL       SmartCamera_reset ; 0x12f4
        0x00000594:    e00b        ..      B        0x5ae ; GPIOHandler + 774
        0x00000596:    2002        .       MOVS     r0,#2
        0x00000598:    f000f82f    ../.    BL       GPIO_input ; 0x5fa
        0x0000059c:    b938        8.      CBNZ     r0,0x5ae ; GPIOHandler + 774
        0x0000059e:    bf00        ..      NOP      
        0x000005a0:    2002        .       MOVS     r0,#2
        0x000005a2:    f000f82a    ..*.    BL       GPIO_input ; 0x5fa
        0x000005a6:    2800        .(      CMP      r0,#0
        0x000005a8:    d0fa        ..      BEQ      0x5a0 ; GPIOHandler + 760
        0x000005aa:    f000fead    ....    BL       SmartCamera_send_SYN ; 0x1308
        0x000005ae:    a007        ..      ADR      r0,{pc}+0x1e ; 0x5cc
        0x000005b0:    f7fffde6    ....    BL       __2printf ; 0x180
        0x000005b4:    bd10        ..      POP      {r4,pc}
    $d
        0x000005b6:    0000        ..      DCW    0
        0x000005b8:    2000000d    ...     DCD    536870925
        0x000005bc:    2000000e    ...     DCD    536870926
        0x000005c0:    2000000c    ...     DCD    536870924
        0x000005c4:    40001000    ...@    DCD    1073745920
        0x000005c8:    2000000f    ...     DCD    536870927
        0x000005cc:    4f495047    GPIO    DCD    1330204743
        0x000005d0:    00000a21    !...    DCD    2593
    $t
    i.GPIO_init
    GPIO_init
        0x000005d4:    f64f7083    O..p    MOV      r0,#0xff83
        0x000005d8:    f04f41a0    O..A    MOV      r1,#0x50000000
        0x000005dc:    6108        .a      STR      r0,[r1,#0x10]
        0x000005de:    207c        |       MOVS     r0,#0x7c
        0x000005e0:    6148        Ha      STR      r0,[r1,#0x14]
        0x000005e2:    2000        .       MOVS     r0,#0
        0x000005e4:    6188        .a      STR      r0,[r1,#0x18]
        0x000005e6:    f64f70ff    O..p    MOV      r0,#0xffff
        0x000005ea:    61c8        .a      STR      r0,[r1,#0x1c]
        0x000005ec:    6048        H`      STR      r0,[r1,#4]
        0x000005ee:    207c        |       MOVS     r0,#0x7c
        0x000005f0:    6208        .b      STR      r0,[r1,#0x20]
        0x000005f2:    f64f70ff    O..p    MOV      r0,#0xffff
        0x000005f6:    6348        Hc      STR      r0,[r1,#0x34]
        0x000005f8:    4770        pG      BX       lr
    i.GPIO_input
    GPIO_input
        0x000005fa:    4601        .F      MOV      r1,r0
        0x000005fc:    f04f40a0    O..@    MOV      r0,#0x50000000
        0x00000600:    6800        .h      LDR      r0,[r0,#0]
        0x00000602:    40c8        .@      LSRS     r0,r0,r1
        0x00000604:    f0000001    ....    AND      r0,r0,#1
        0x00000608:    4770        pG      BX       lr
    i.GPIO_output
    GPIO_output
        0x0000060a:    b949        I.      CBNZ     r1,0x620 ; GPIO_output + 22
        0x0000060c:    f04f42a0    O..B    MOV      r2,#0x50000000
        0x00000610:    6852        Rh      LDR      r2,[r2,#4]
        0x00000612:    2301        .#      MOVS     r3,#1
        0x00000614:    4083        .@      LSLS     r3,r3,r0
        0x00000616:    439a        .C      BICS     r2,r2,r3
        0x00000618:    f04f43a0    O..C    MOV      r3,#0x50000000
        0x0000061c:    605a        Z`      STR      r2,[r3,#4]
        0x0000061e:    e00a        ..      B        0x636 ; GPIO_output + 44
        0x00000620:    2901        .)      CMP      r1,#1
        0x00000622:    d108        ..      BNE      0x636 ; GPIO_output + 44
        0x00000624:    f04f42a0    O..B    MOV      r2,#0x50000000
        0x00000628:    6852        Rh      LDR      r2,[r2,#4]
        0x0000062a:    2301        .#      MOVS     r3,#1
        0x0000062c:    4083        .@      LSLS     r3,r3,r0
        0x0000062e:    431a        .C      ORRS     r2,r2,r3
        0x00000630:    f04f43a0    O..C    MOV      r3,#0x50000000
        0x00000634:    605a        Z`      STR      r2,[r3,#4]
        0x00000636:    4770        pG      BX       lr
    i.HardFaultHandler
    HardFaultHandler
        0x00000638:    b510        ..      PUSH     {r4,lr}
        0x0000063a:    a002        ..      ADR      r0,{pc}+0xa ; 0x644
        0x0000063c:    f7fffda0    ....    BL       __2printf ; 0x180
        0x00000640:    bd10        ..      POP      {r4,pc}
    $d
        0x00000642:    0000        ..      DCW    0
        0x00000644:    64726148    Hard    DCD    1685217608
        0x00000648:    6c756146    Faul    DCD    1819631942
        0x0000064c:    000a2174    t!..    DCD    663924
    $t
    i.LCD_Address_Set
    LCD_Address_Set
        0x00000650:    e92d41f0    -..A    PUSH     {r4-r8,lr}
        0x00000654:    4604        .F      MOV      r4,r0
        0x00000656:    460d        .F      MOV      r5,r1
        0x00000658:    4616        .F      MOV      r6,r2
        0x0000065a:    461f        .F      MOV      r7,r3
        0x0000065c:    202a        *       MOVS     r0,#0x2a
        0x0000065e:    f000fa19    ....    BL       LCD_WR_REG ; 0xa94
        0x00000662:    f3c42007    ...     UBFX     r0,r4,#8,#8
        0x00000666:    f000fa0b    ....    BL       LCD_WR_DATA8 ; 0xa80
        0x0000066a:    b2e0        ..      UXTB     r0,r4
        0x0000066c:    f000fa08    ....    BL       LCD_WR_DATA8 ; 0xa80
        0x00000670:    f3c62007    ...     UBFX     r0,r6,#8,#8
        0x00000674:    f000fa04    ....    BL       LCD_WR_DATA8 ; 0xa80
        0x00000678:    b2f0        ..      UXTB     r0,r6
        0x0000067a:    f000fa01    ....    BL       LCD_WR_DATA8 ; 0xa80
        0x0000067e:    202b        +       MOVS     r0,#0x2b
        0x00000680:    f000fa08    ....    BL       LCD_WR_REG ; 0xa94
        0x00000684:    f3c52007    ...     UBFX     r0,r5,#8,#8
        0x00000688:    f000f9fa    ....    BL       LCD_WR_DATA8 ; 0xa80
        0x0000068c:    b2e8        ..      UXTB     r0,r5
        0x0000068e:    f000f9f7    ....    BL       LCD_WR_DATA8 ; 0xa80
        0x00000692:    f3c72007    ...     UBFX     r0,r7,#8,#8
        0x00000696:    f000f9f3    ....    BL       LCD_WR_DATA8 ; 0xa80
        0x0000069a:    b2f8        ..      UXTB     r0,r7
        0x0000069c:    f000f9f0    ....    BL       LCD_WR_DATA8 ; 0xa80
        0x000006a0:    202c        ,       MOVS     r0,#0x2c
        0x000006a2:    f000f9f7    ....    BL       LCD_WR_REG ; 0xa94
        0x000006a6:    e8bd81f0    ....    POP      {r4-r8,pc}
    i.LCD_Clear
    LCD_Clear
        0x000006aa:    b570        p.      PUSH     {r4-r6,lr}
        0x000006ac:    4606        .F      MOV      r6,r0
        0x000006ae:    f240133f    @.?.    MOV      r3,#0x13f
        0x000006b2:    f24012df    @...    MOV      r2,#0x1df
        0x000006b6:    2100        .!      MOVS     r1,#0
        0x000006b8:    4608        .F      MOV      r0,r1
        0x000006ba:    f7ffffc9    ....    BL       LCD_Address_Set ; 0x650
        0x000006be:    2400        .$      MOVS     r4,#0
        0x000006c0:    e009        ..      B        0x6d6 ; LCD_Clear + 44
        0x000006c2:    2500        .%      MOVS     r5,#0
        0x000006c4:    e003        ..      B        0x6ce ; LCD_Clear + 36
        0x000006c6:    4630        0F      MOV      r0,r6
        0x000006c8:    f000f9c8    ....    BL       LCD_WR_DATA ; 0xa5c
        0x000006cc:    1c6d        m.      ADDS     r5,r5,#1
        0x000006ce:    f5b57fa0    ....    CMP      r5,#0x140
        0x000006d2:    d3f8        ..      BCC      0x6c6 ; LCD_Clear + 28
        0x000006d4:    1c64        d.      ADDS     r4,r4,#1
        0x000006d6:    f5b47ff0    ....    CMP      r4,#0x1e0
        0x000006da:    d3f2        ..      BCC      0x6c2 ; LCD_Clear + 24
        0x000006dc:    bd70        p.      POP      {r4-r6,pc}
    i.LCD_DrawLine
    LCD_DrawLine
        0x000006de:    e92d4fff    -..O    PUSH     {r0-r11,lr}
        0x000006e2:    b085        ..      SUB      sp,sp,#0x14
        0x000006e4:    4681        .F      MOV      r9,r0
        0x000006e6:    468a        .F      MOV      r10,r1
        0x000006e8:    2000        .       MOVS     r0,#0
        0x000006ea:    9003        ..      STR      r0,[sp,#0xc]
        0x000006ec:    4683        .F      MOV      r11,r0
        0x000006ee:    9807        ..      LDR      r0,[sp,#0x1c]
        0x000006f0:    eba00409    ....    SUB      r4,r0,r9
        0x000006f4:    9808        ..      LDR      r0,[sp,#0x20]
        0x000006f6:    eba0060a    ....    SUB      r6,r0,r10
        0x000006fa:    f8cd9008    ....    STR      r9,[sp,#8]
        0x000006fe:    f8cda004    ....    STR      r10,[sp,#4]
        0x00000702:    2c00        .,      CMP      r4,#0
        0x00000704:    dd01        ..      BLE      0x70a ; LCD_DrawLine + 44
        0x00000706:    2701        .'      MOVS     r7,#1
        0x00000708:    e005        ..      B        0x716 ; LCD_DrawLine + 56
        0x0000070a:    b90c        ..      CBNZ     r4,0x710 ; LCD_DrawLine + 50
        0x0000070c:    2700        .'      MOVS     r7,#0
        0x0000070e:    e002        ..      B        0x716 ; LCD_DrawLine + 56
        0x00000710:    f04f37ff    O..7    MOV      r7,#0xffffffff
        0x00000714:    4264        dB      RSBS     r4,r4,#0
        0x00000716:    2e00        ..      CMP      r6,#0
        0x00000718:    dd02        ..      BLE      0x720 ; LCD_DrawLine + 66
        0x0000071a:    f04f0801    O...    MOV      r8,#1
        0x0000071e:    e006        ..      B        0x72e ; LCD_DrawLine + 80
        0x00000720:    b916        ..      CBNZ     r6,0x728 ; LCD_DrawLine + 74
        0x00000722:    f04f0800    O...    MOV      r8,#0
        0x00000726:    e002        ..      B        0x72e ; LCD_DrawLine + 80
        0x00000728:    f04f38ff    O..8    MOV      r8,#0xffffffff
        0x0000072c:    4266        fB      RSBS     r6,r4,#0
        0x0000072e:    42b4        .B      CMP      r4,r6
        0x00000730:    dd01        ..      BLE      0x736 ; LCD_DrawLine + 88
        0x00000732:    4625        %F      MOV      r5,r4
        0x00000734:    e000        ..      B        0x738 ; LCD_DrawLine + 90
        0x00000736:    4635        5F      MOV      r5,r6
        0x00000738:    2000        .       MOVS     r0,#0
        0x0000073a:    9004        ..      STR      r0,[sp,#0x10]
        0x0000073c:    e01b        ..      B        0x776 ; LCD_DrawLine + 152
        0x0000073e:    9a12        ..      LDR      r2,[sp,#0x48]
        0x00000740:    e9dd1001    ....    LDRD     r1,r0,[sp,#4]
        0x00000744:    f000f81e    ....    BL       LCD_DrawPoint ; 0x784
        0x00000748:    9803        ..      LDR      r0,[sp,#0xc]
        0x0000074a:    4420         D      ADD      r0,r0,r4
        0x0000074c:    9003        ..      STR      r0,[sp,#0xc]
        0x0000074e:    44b3        .D      ADD      r11,r11,r6
        0x00000750:    9803        ..      LDR      r0,[sp,#0xc]
        0x00000752:    42a8        .B      CMP      r0,r5
        0x00000754:    dd05        ..      BLE      0x762 ; LCD_DrawLine + 132
        0x00000756:    9803        ..      LDR      r0,[sp,#0xc]
        0x00000758:    1b40        @.      SUBS     r0,r0,r5
        0x0000075a:    9003        ..      STR      r0,[sp,#0xc]
        0x0000075c:    9802        ..      LDR      r0,[sp,#8]
        0x0000075e:    4438        8D      ADD      r0,r0,r7
        0x00000760:    9002        ..      STR      r0,[sp,#8]
        0x00000762:    45ab        .E      CMP      r11,r5
        0x00000764:    dd04        ..      BLE      0x770 ; LCD_DrawLine + 146
        0x00000766:    ebab0b05    ....    SUB      r11,r11,r5
        0x0000076a:    9801        ..      LDR      r0,[sp,#4]
        0x0000076c:    4440        @D      ADD      r0,r0,r8
        0x0000076e:    9001        ..      STR      r0,[sp,#4]
        0x00000770:    9804        ..      LDR      r0,[sp,#0x10]
        0x00000772:    1c40        @.      ADDS     r0,r0,#1
        0x00000774:    9004        ..      STR      r0,[sp,#0x10]
        0x00000776:    1c69        i.      ADDS     r1,r5,#1
        0x00000778:    9804        ..      LDR      r0,[sp,#0x10]
        0x0000077a:    4288        .B      CMP      r0,r1
        0x0000077c:    d3df        ..      BCC      0x73e ; LCD_DrawLine + 96
        0x0000077e:    b009        ..      ADD      sp,sp,#0x24
        0x00000780:    e8bd8ff0    ....    POP      {r4-r11,pc}
    i.LCD_DrawPoint
    LCD_DrawPoint
        0x00000784:    b570        p.      PUSH     {r4-r6,lr}
        0x00000786:    4604        .F      MOV      r4,r0
        0x00000788:    460d        .F      MOV      r5,r1
        0x0000078a:    4616        .F      MOV      r6,r2
        0x0000078c:    462b        +F      MOV      r3,r5
        0x0000078e:    4622        "F      MOV      r2,r4
        0x00000790:    4629        )F      MOV      r1,r5
        0x00000792:    4620         F      MOV      r0,r4
        0x00000794:    f7ffff5c    ..\.    BL       LCD_Address_Set ; 0x650
        0x00000798:    4630        0F      MOV      r0,r6
        0x0000079a:    f000f95f    .._.    BL       LCD_WR_DATA ; 0xa5c
        0x0000079e:    bd70        p.      POP      {r4-r6,pc}
    i.LCD_DrawRectangle
    LCD_DrawRectangle
        0x000007a0:    e92d43f8    -..C    PUSH     {r3-r9,lr}
        0x000007a4:    4605        .F      MOV      r5,r0
        0x000007a6:    460e        .F      MOV      r6,r1
        0x000007a8:    4617        .F      MOV      r7,r2
        0x000007aa:    4698        .F      MOV      r8,r3
        0x000007ac:    9c08        ..      LDR      r4,[sp,#0x20]
        0x000007ae:    4633        3F      MOV      r3,r6
        0x000007b0:    463a        :F      MOV      r2,r7
        0x000007b2:    4631        1F      MOV      r1,r6
        0x000007b4:    4628        (F      MOV      r0,r5
        0x000007b6:    9400        ..      STR      r4,[sp,#0]
        0x000007b8:    f7ffff91    ....    BL       LCD_DrawLine ; 0x6de
        0x000007bc:    4643        CF      MOV      r3,r8
        0x000007be:    462a        *F      MOV      r2,r5
        0x000007c0:    4631        1F      MOV      r1,r6
        0x000007c2:    4628        (F      MOV      r0,r5
        0x000007c4:    9400        ..      STR      r4,[sp,#0]
        0x000007c6:    f7ffff8a    ....    BL       LCD_DrawLine ; 0x6de
        0x000007ca:    4643        CF      MOV      r3,r8
        0x000007cc:    463a        :F      MOV      r2,r7
        0x000007ce:    4641        AF      MOV      r1,r8
        0x000007d0:    4628        (F      MOV      r0,r5
        0x000007d2:    9400        ..      STR      r4,[sp,#0]
        0x000007d4:    f7ffff83    ....    BL       LCD_DrawLine ; 0x6de
        0x000007d8:    4643        CF      MOV      r3,r8
        0x000007da:    463a        :F      MOV      r2,r7
        0x000007dc:    4631        1F      MOV      r1,r6
        0x000007de:    4638        8F      MOV      r0,r7
        0x000007e0:    9400        ..      STR      r4,[sp,#0]
        0x000007e2:    f7ffff7c    ..|.    BL       LCD_DrawLine ; 0x6de
        0x000007e6:    e8bd83f8    ....    POP      {r3-r9,pc}
        0x000007ea:    0000        ..      MOVS     r0,r0
    i.LCD_ShowChinese32x32
    LCD_ShowChinese32x32
        0x000007ec:    e92d5ff0    -.._    PUSH     {r4-r12,lr}
        0x000007f0:    4605        .F      MOV      r5,r0
        0x000007f2:    4689        .F      MOV      r9,r1
        0x000007f4:    4693        .F      MOV      r11,r2
        0x000007f6:    461e        .F      MOV      r6,r3
        0x000007f8:    f8dda028    ..(.    LDR      r10,[sp,#0x28]
        0x000007fc:    2400        .$      MOVS     r4,#0
        0x000007fe:    e032        2.      B        0x866 ; LCD_ShowChinese32x32 + 122
        0x00000800:    eb090106    ....    ADD      r1,r9,r6
        0x00000804:    1e4b        K.      SUBS     r3,r1,#1
        0x00000806:    eb040144    ..D.    ADD      r1,r4,r4,LSL #1
        0x0000080a:    eb0501c1    ....    ADD      r1,r5,r1,LSL #3
        0x0000080e:    4431        1D      ADD      r1,r1,r6
        0x00000810:    1e4a        J.      SUBS     r2,r1,#1
        0x00000812:    eb040144    ..D.    ADD      r1,r4,r4,LSL #1
        0x00000816:    eb0500c1    ....    ADD      r0,r5,r1,LSL #3
        0x0000081a:    4649        IF      MOV      r1,r9
        0x0000081c:    f7ffff18    ....    BL       LCD_Address_Set ; 0x650
        0x00000820:    f04f0800    O...    MOV      r8,#0
        0x00000824:    e01a        ..      B        0x85c ; LCD_ShowChinese32x32 + 112
        0x00000826:    2700        .'      MOVS     r7,#0
        0x00000828:    e012        ..      B        0x850 ; LCD_ShowChinese32x32 + 100
        0x0000082a:    eb0400c4    ....    ADD      r0,r4,r4,LSL #3
        0x0000082e:    eb0800c0    ....    ADD      r0,r8,r0,LSL #3
        0x00000832:    490f        .I      LDR      r1,[pc,#60] ; [0x870] = 0x1b58
        0x00000834:    5c08        .\      LDRB     r0,[r1,r0]
        0x00000836:    2101        .!      MOVS     r1,#1
        0x00000838:    40b9        .@      LSLS     r1,r1,r7
        0x0000083a:    4008        .@      ANDS     r0,r0,r1
        0x0000083c:    b118        ..      CBZ      r0,0x846 ; LCD_ShowChinese32x32 + 90
        0x0000083e:    4650        PF      MOV      r0,r10
        0x00000840:    f000f90c    ....    BL       LCD_WR_DATA ; 0xa5c
        0x00000844:    e002        ..      B        0x84c ; LCD_ShowChinese32x32 + 96
        0x00000846:    480b        .H      LDR      r0,[pc,#44] ; [0x874] = 0xfcfcfc
        0x00000848:    f000f908    ....    BL       LCD_WR_DATA ; 0xa5c
        0x0000084c:    1c78        x.      ADDS     r0,r7,#1
        0x0000084e:    b2c7        ..      UXTB     r7,r0
        0x00000850:    2f08        ./      CMP      r7,#8
        0x00000852:    dbea        ..      BLT      0x82a ; LCD_ShowChinese32x32 + 62
        0x00000854:    f1080001    ....    ADD      r0,r8,#1
        0x00000858:    f00008ff    ....    AND      r8,r0,#0xff
        0x0000085c:    f1b80f48    ..H.    CMP      r8,#0x48
        0x00000860:    dbe1        ..      BLT      0x826 ; LCD_ShowChinese32x32 + 58
        0x00000862:    1c60        `.      ADDS     r0,r4,#1
        0x00000864:    b2c4        ..      UXTB     r4,r0
        0x00000866:    2c07        .,      CMP      r4,#7
        0x00000868:    dbca        ..      BLT      0x800 ; LCD_ShowChinese32x32 + 20
        0x0000086a:    e8bd9ff0    ....    POP      {r4-r12,pc}
    $d
        0x0000086e:    0000        ..      DCW    0
        0x00000870:    00001b58    X...    DCD    7000
        0x00000874:    00fcfcfc    ....    DCD    16579836
    $t
    i.LCD_ShowPicture
    LCD_ShowPicture
        0x00000878:    e92d5ff0    -.._    PUSH     {r4-r12,lr}
        0x0000087c:    4680        .F      MOV      r8,r0
        0x0000087e:    4689        .F      MOV      r9,r1
        0x00000880:    4692        .F      MOV      r10,r2
        0x00000882:    469b        .F      MOV      r11,r3
        0x00000884:    f1080aef    ....    ADD      r10,r8,#0xef
        0x00000888:    f1090bef    ....    ADD      r11,r9,#0xef
        0x0000088c:    465b        [F      MOV      r3,r11
        0x0000088e:    4652        RF      MOV      r2,r10
        0x00000890:    4649        IF      MOV      r1,r9
        0x00000892:    4640        @F      MOV      r0,r8
        0x00000894:    f7fffedc    ....    BL       LCD_Address_Set ; 0x650
        0x00000898:    2400        .$      MOVS     r4,#0
        0x0000089a:    e023        #.      B        0x8e4 ; LCD_ShowPicture + 108
        0x0000089c:    482b        +H      LDR      r0,[pc,#172] ; [0x94c] = 0x2690
        0x0000089e:    5d07        .]      LDRB     r7,[r0,r4]
        0x000008a0:    2500        .%      MOVS     r5,#0
        0x000008a2:    e01c        ..      B        0x8de ; LCD_ShowPicture + 102
        0x000008a4:    f1c50007    ....    RSB      r0,r5,#7
        0x000008a8:    fa47f000    G...    ASR      r0,r7,r0
        0x000008ac:    f0000601    ....    AND      r6,r0,#1
        0x000008b0:    b94e        N.      CBNZ     r6,0x8c6 ; LCD_ShowPicture + 78
        0x000008b2:    20ff        .       MOVS     r0,#0xff
        0x000008b4:    f000f8e4    ....    BL       LCD_WR_DATA8 ; 0xa80
        0x000008b8:    20ff        .       MOVS     r0,#0xff
        0x000008ba:    f000f8e1    ....    BL       LCD_WR_DATA8 ; 0xa80
        0x000008be:    20ff        .       MOVS     r0,#0xff
        0x000008c0:    f000f8de    ....    BL       LCD_WR_DATA8 ; 0xa80
        0x000008c4:    e00a        ..      B        0x8dc ; LCD_ShowPicture + 100
        0x000008c6:    2e01        ..      CMP      r6,#1
        0x000008c8:    d108        ..      BNE      0x8dc ; LCD_ShowPicture + 100
        0x000008ca:    2000        .       MOVS     r0,#0
        0x000008cc:    f000f8d8    ....    BL       LCD_WR_DATA8 ; 0xa80
        0x000008d0:    2000        .       MOVS     r0,#0
        0x000008d2:    f000f8d5    ....    BL       LCD_WR_DATA8 ; 0xa80
        0x000008d6:    20ff        .       MOVS     r0,#0xff
        0x000008d8:    f000f8d2    ....    BL       LCD_WR_DATA8 ; 0xa80
        0x000008dc:    1c6d        m.      ADDS     r5,r5,#1
        0x000008de:    2d08        .-      CMP      r5,#8
        0x000008e0:    dbe0        ..      BLT      0x8a4 ; LCD_ShowPicture + 44
        0x000008e2:    1c64        d.      ADDS     r4,r4,#1
        0x000008e4:    f5b45fe1    ..._    CMP      r4,#0x1c20
        0x000008e8:    dbd8        ..      BLT      0x89c ; LCD_ShowPicture + 36
        0x000008ea:    2329        )#      MOVS     r3,#0x29
        0x000008ec:    f240128f    @...    MOV      r2,#0x18f
        0x000008f0:    210a        .!      MOVS     r1,#0xa
        0x000008f2:    2050        P       MOVS     r0,#0x50
        0x000008f4:    f7fffeac    ....    BL       LCD_Address_Set ; 0x650
        0x000008f8:    2400        .$      MOVS     r4,#0
        0x000008fa:    e021        !.      B        0x940 ; LCD_ShowPicture + 200
        0x000008fc:    4814        .H      LDR      r0,[pc,#80] ; [0x950] = 0x2190
        0x000008fe:    5d07        .]      LDRB     r7,[r0,r4]
        0x00000900:    2507        .%      MOVS     r5,#7
        0x00000902:    e01a        ..      B        0x93a ; LCD_ShowPicture + 194
        0x00000904:    fa47f005    G...    ASR      r0,r7,r5
        0x00000908:    f0000601    ....    AND      r6,r0,#1
        0x0000090c:    b94e        N.      CBNZ     r6,0x922 ; LCD_ShowPicture + 170
        0x0000090e:    20ff        .       MOVS     r0,#0xff
        0x00000910:    f000f8b6    ....    BL       LCD_WR_DATA8 ; 0xa80
        0x00000914:    20ff        .       MOVS     r0,#0xff
        0x00000916:    f000f8b3    ....    BL       LCD_WR_DATA8 ; 0xa80
        0x0000091a:    20ff        .       MOVS     r0,#0xff
        0x0000091c:    f000f8b0    ....    BL       LCD_WR_DATA8 ; 0xa80
        0x00000920:    e00a        ..      B        0x938 ; LCD_ShowPicture + 192
        0x00000922:    2e01        ..      CMP      r6,#1
        0x00000924:    d108        ..      BNE      0x938 ; LCD_ShowPicture + 192
        0x00000926:    20ff        .       MOVS     r0,#0xff
        0x00000928:    f000f8aa    ....    BL       LCD_WR_DATA8 ; 0xa80
        0x0000092c:    2000        .       MOVS     r0,#0
        0x0000092e:    f000f8a7    ....    BL       LCD_WR_DATA8 ; 0xa80
        0x00000932:    2000        .       MOVS     r0,#0
        0x00000934:    f000f8a4    ....    BL       LCD_WR_DATA8 ; 0xa80
        0x00000938:    1e6d        m.      SUBS     r5,r5,#1
        0x0000093a:    2d00        .-      CMP      r5,#0
        0x0000093c:    dae2        ..      BGE      0x904 ; LCD_ShowPicture + 140
        0x0000093e:    1c64        d.      ADDS     r4,r4,#1
        0x00000940:    f5b46fa0    ...o    CMP      r4,#0x500
        0x00000944:    dbda        ..      BLT      0x8fc ; LCD_ShowPicture + 132
        0x00000946:    e8bd9ff0    ....    POP      {r4-r12,pc}
    $d
        0x0000094a:    0000        ..      DCW    0
        0x0000094c:    00002690    .&..    DCD    9872
        0x00000950:    00002190    .!..    DCD    8592
    $t
    i.LCD_Show_ASCII
    LCD_Show_ASCII
        0x00000954:    e92d5ff0    -.._    PUSH     {r4-r12,lr}
        0x00000958:    4606        .F      MOV      r6,r0
        0x0000095a:    4689        .F      MOV      r9,r1
        0x0000095c:    4615        .F      MOV      r5,r2
        0x0000095e:    469a        .F      MOV      r10,r3
        0x00000960:    2400        .$      MOVS     r4,#0
        0x00000962:    e072        r.      B        0xa4a ; LCD_Show_ASCII + 246
        0x00000964:    f109030f    ....    ADD      r3,r9,#0xf
        0x00000968:    eb0601c4    ....    ADD      r1,r6,r4,LSL #3
        0x0000096c:    1dca        ..      ADDS     r2,r1,#7
        0x0000096e:    eb0600c4    ....    ADD      r0,r6,r4,LSL #3
        0x00000972:    4649        IF      MOV      r1,r9
        0x00000974:    f7fffe6c    ..l.    BL       LCD_Address_Set ; 0x650
        0x00000978:    5d28        (]      LDRB     r0,[r5,r4]
        0x0000097a:    2830        0(      CMP      r0,#0x30
        0x0000097c:    db08        ..      BLT      0x990 ; LCD_Show_ASCII + 60
        0x0000097e:    5d28        (]      LDRB     r0,[r5,r4]
        0x00000980:    2839        9(      CMP      r0,#0x39
        0x00000982:    dc05        ..      BGT      0x990 ; LCD_Show_ASCII + 60
        0x00000984:    5d28        (]      LDRB     r0,[r5,r4]
        0x00000986:    3830        08      SUBS     r0,r0,#0x30
        0x00000988:    2100        .!      MOVS     r1,#0
        0x0000098a:    eb011b00    ....    ADD      r11,r1,r0,LSL #4
        0x0000098e:    e03b        ;.      B        0xa08 ; LCD_Show_ASCII + 180
        0x00000990:    5d28        (]      LDRB     r0,[r5,r4]
        0x00000992:    2841        A(      CMP      r0,#0x41
        0x00000994:    db08        ..      BLT      0x9a8 ; LCD_Show_ASCII + 84
        0x00000996:    5d28        (]      LDRB     r0,[r5,r4]
        0x00000998:    285a        Z(      CMP      r0,#0x5a
        0x0000099a:    dc05        ..      BGT      0x9a8 ; LCD_Show_ASCII + 84
        0x0000099c:    5d28        (]      LDRB     r0,[r5,r4]
        0x0000099e:    3841        A8      SUBS     r0,r0,#0x41
        0x000009a0:    21a0        .!      MOVS     r1,#0xa0
        0x000009a2:    eb011b00    ....    ADD      r11,r1,r0,LSL #4
        0x000009a6:    e02f        /.      B        0xa08 ; LCD_Show_ASCII + 180
        0x000009a8:    5d28        (]      LDRB     r0,[r5,r4]
        0x000009aa:    2861        a(      CMP      r0,#0x61
        0x000009ac:    db09        ..      BLT      0x9c2 ; LCD_Show_ASCII + 110
        0x000009ae:    5d28        (]      LDRB     r0,[r5,r4]
        0x000009b0:    287a        z(      CMP      r0,#0x7a
        0x000009b2:    dc06        ..      BGT      0x9c2 ; LCD_Show_ASCII + 110
        0x000009b4:    5d28        (]      LDRB     r0,[r5,r4]
        0x000009b6:    3861        a8      SUBS     r0,r0,#0x61
        0x000009b8:    f44f7110    O..q    MOV      r1,#0x240
        0x000009bc:    eb011b00    ....    ADD      r11,r1,r0,LSL #4
        0x000009c0:    e022        ".      B        0xa08 ; LCD_Show_ASCII + 180
        0x000009c2:    5d28        (]      LDRB     r0,[r5,r4]
        0x000009c4:    285f        _(      CMP      r0,#0x5f
        0x000009c6:    d102        ..      BNE      0x9ce ; LCD_Show_ASCII + 122
        0x000009c8:    f44f7b78    O.x{    MOV      r11,#0x3e0
        0x000009cc:    e01c        ..      B        0xa08 ; LCD_Show_ASCII + 180
        0x000009ce:    5d28        (]      LDRB     r0,[r5,r4]
        0x000009d0:    283a        :(      CMP      r0,#0x3a
        0x000009d2:    d102        ..      BNE      0x9da ; LCD_Show_ASCII + 134
        0x000009d4:    f44f7b7c    O.|{    MOV      r11,#0x3f0
        0x000009d8:    e016        ..      B        0xa08 ; LCD_Show_ASCII + 180
        0x000009da:    5d28        (]      LDRB     r0,[r5,r4]
        0x000009dc:    283c        <(      CMP      r0,#0x3c
        0x000009de:    d102        ..      BNE      0x9e6 ; LCD_Show_ASCII + 146
        0x000009e0:    f44f6b80    O..k    MOV      r11,#0x400
        0x000009e4:    e010        ..      B        0xa08 ; LCD_Show_ASCII + 180
        0x000009e6:    5d28        (]      LDRB     r0,[r5,r4]
        0x000009e8:    2820         (      CMP      r0,#0x20
        0x000009ea:    d102        ..      BNE      0x9f2 ; LCD_Show_ASCII + 158
        0x000009ec:    f44f6b82    O..k    MOV      r11,#0x410
        0x000009f0:    e00a        ..      B        0xa08 ; LCD_Show_ASCII + 180
        0x000009f2:    5d28        (]      LDRB     r0,[r5,r4]
        0x000009f4:    282b        +(      CMP      r0,#0x2b
        0x000009f6:    d102        ..      BNE      0x9fe ; LCD_Show_ASCII + 170
        0x000009f8:    f44f6b84    O..k    MOV      r11,#0x420
        0x000009fc:    e004        ..      B        0xa08 ; LCD_Show_ASCII + 180
        0x000009fe:    5d28        (]      LDRB     r0,[r5,r4]
        0x00000a00:    282d        -(      CMP      r0,#0x2d
        0x00000a02:    d101        ..      BNE      0xa08 ; LCD_Show_ASCII + 180
        0x00000a04:    f44f6b86    O..k    MOV      r11,#0x430
        0x00000a08:    f04f0800    O...    MOV      r8,#0
        0x00000a0c:    e018        ..      B        0xa40 ; LCD_Show_ASCII + 236
        0x00000a0e:    2700        .'      MOVS     r7,#0
        0x00000a10:    e010        ..      B        0xa34 ; LCD_Show_ASCII + 224
        0x00000a12:    eb0b0008    ....    ADD      r0,r11,r8
        0x00000a16:    490f        .I      LDR      r1,[pc,#60] ; [0xa54] = 0x1d50
        0x00000a18:    5c08        .\      LDRB     r0,[r1,r0]
        0x00000a1a:    2101        .!      MOVS     r1,#1
        0x00000a1c:    40b9        .@      LSLS     r1,r1,r7
        0x00000a1e:    4008        .@      ANDS     r0,r0,r1
        0x00000a20:    b118        ..      CBZ      r0,0xa2a ; LCD_Show_ASCII + 214
        0x00000a22:    4650        PF      MOV      r0,r10
        0x00000a24:    f000f81a    ....    BL       LCD_WR_DATA ; 0xa5c
        0x00000a28:    e002        ..      B        0xa30 ; LCD_Show_ASCII + 220
        0x00000a2a:    480b        .H      LDR      r0,[pc,#44] ; [0xa58] = 0xfcfcfc
        0x00000a2c:    f000f816    ....    BL       LCD_WR_DATA ; 0xa5c
        0x00000a30:    1c78        x.      ADDS     r0,r7,#1
        0x00000a32:    b2c7        ..      UXTB     r7,r0
        0x00000a34:    2f08        ./      CMP      r7,#8
        0x00000a36:    dbec        ..      BLT      0xa12 ; LCD_Show_ASCII + 190
        0x00000a38:    f1080001    ....    ADD      r0,r8,#1
        0x00000a3c:    f00008ff    ....    AND      r8,r0,#0xff
        0x00000a40:    f1b80f10    ....    CMP      r8,#0x10
        0x00000a44:    dbe3        ..      BLT      0xa0e ; LCD_Show_ASCII + 186
        0x00000a46:    1c60        `.      ADDS     r0,r4,#1
        0x00000a48:    b2c4        ..      UXTB     r4,r0
        0x00000a4a:    5d28        (]      LDRB     r0,[r5,r4]
        0x00000a4c:    2800        .(      CMP      r0,#0
        0x00000a4e:    d189        ..      BNE      0x964 ; LCD_Show_ASCII + 16
        0x00000a50:    e8bd9ff0    ....    POP      {r4-r12,pc}
    $d
        0x00000a54:    00001d50    P...    DCD    7504
        0x00000a58:    00fcfcfc    ....    DCD    16579836
    $t
    i.LCD_WR_DATA
    LCD_WR_DATA
        0x00000a5c:    b510        ..      PUSH     {r4,lr}
        0x00000a5e:    4604        .F      MOV      r4,r0
        0x00000a60:    2101        .!      MOVS     r1,#1
        0x00000a62:    200f        .       MOVS     r0,#0xf
        0x00000a64:    f7fffdd1    ....    BL       GPIO_output ; 0x60a
        0x00000a68:    f3c44007    ...@    UBFX     r0,r4,#16,#8
        0x00000a6c:    f000f81c    ....    BL       LCD_Writ_Bus ; 0xaa8
        0x00000a70:    f3c42007    ...     UBFX     r0,r4,#8,#8
        0x00000a74:    f000f818    ....    BL       LCD_Writ_Bus ; 0xaa8
        0x00000a78:    b2e0        ..      UXTB     r0,r4
        0x00000a7a:    f000f815    ....    BL       LCD_Writ_Bus ; 0xaa8
        0x00000a7e:    bd10        ..      POP      {r4,pc}
    i.LCD_WR_DATA8
    LCD_WR_DATA8
        0x00000a80:    b510        ..      PUSH     {r4,lr}
        0x00000a82:    4604        .F      MOV      r4,r0
        0x00000a84:    2101        .!      MOVS     r1,#1
        0x00000a86:    200f        .       MOVS     r0,#0xf
        0x00000a88:    f7fffdbf    ....    BL       GPIO_output ; 0x60a
        0x00000a8c:    4620         F      MOV      r0,r4
        0x00000a8e:    f000f80b    ....    BL       LCD_Writ_Bus ; 0xaa8
        0x00000a92:    bd10        ..      POP      {r4,pc}
    i.LCD_WR_REG
    LCD_WR_REG
        0x00000a94:    b510        ..      PUSH     {r4,lr}
        0x00000a96:    4604        .F      MOV      r4,r0
        0x00000a98:    2100        .!      MOVS     r1,#0
        0x00000a9a:    200f        .       MOVS     r0,#0xf
        0x00000a9c:    f7fffdb5    ....    BL       GPIO_output ; 0x60a
        0x00000aa0:    4620         F      MOV      r0,r4
        0x00000aa2:    f000f801    ....    BL       LCD_Writ_Bus ; 0xaa8
        0x00000aa6:    bd10        ..      POP      {r4,pc}
    i.LCD_Writ_Bus
    LCD_Writ_Bus
        0x00000aa8:    b570        p.      PUSH     {r4-r6,lr}
        0x00000aaa:    4604        .F      MOV      r4,r0
        0x00000aac:    2500        .%      MOVS     r5,#0
        0x00000aae:    e017        ..      B        0xae0 ; LCD_Writ_Bus + 56
        0x00000ab0:    2100        .!      MOVS     r1,#0
        0x00000ab2:    200c        .       MOVS     r0,#0xc
        0x00000ab4:    f7fffda9    ....    BL       GPIO_output ; 0x60a
        0x00000ab8:    f0040080    ....    AND      r0,r4,#0x80
        0x00000abc:    b120         .      CBZ      r0,0xac8 ; LCD_Writ_Bus + 32
        0x00000abe:    2101        .!      MOVS     r1,#1
        0x00000ac0:    200d        .       MOVS     r0,#0xd
        0x00000ac2:    f7fffda2    ....    BL       GPIO_output ; 0x60a
        0x00000ac6:    e003        ..      B        0xad0 ; LCD_Writ_Bus + 40
        0x00000ac8:    2100        .!      MOVS     r1,#0
        0x00000aca:    200d        .       MOVS     r0,#0xd
        0x00000acc:    f7fffd9d    ....    BL       GPIO_output ; 0x60a
        0x00000ad0:    2101        .!      MOVS     r1,#1
        0x00000ad2:    200c        .       MOVS     r0,#0xc
        0x00000ad4:    f7fffd99    ....    BL       GPIO_output ; 0x60a
        0x00000ad8:    0660        `.      LSLS     r0,r4,#25
        0x00000ada:    0e04        ..      LSRS     r4,r0,#24
        0x00000adc:    1c68        h.      ADDS     r0,r5,#1
        0x00000ade:    b2c5        ..      UXTB     r5,r0
        0x00000ae0:    2d08        .-      CMP      r5,#8
        0x00000ae2:    dbe5        ..      BLT      0xab0 ; LCD_Writ_Bus + 8
        0x00000ae4:    bd70        p.      POP      {r4-r6,pc}
        0x00000ae6:    0000        ..      MOVS     r0,r0
    i.LCD_clear_item
    LCD_clear_item
        0x00000ae8:    b510        ..      PUSH     {r4,lr}
        0x00000aea:    2400        .$      MOVS     r4,#0
        0x00000aec:    e00c        ..      B        0xb08 ; LCD_clear_item + 32
        0x00000aee:    eb040044    ..D.    ADD      r0,r4,r4,LSL #1
        0x00000af2:    00c0        ..      LSLS     r0,r0,#3
        0x00000af4:    f1000178    ..x.    ADD      r1,r0,#0x78
        0x00000af8:    4b05        .K      LDR      r3,[pc,#20] ; [0xb10] = 0xfcfcfc
        0x00000afa:    a206        ..      ADR      r2,{pc}+0x1a ; 0xb14
        0x00000afc:    f44f7091    O..p    MOV      r0,#0x122
        0x00000b00:    f7ffff28    ..(.    BL       LCD_Show_ASCII ; 0x954
        0x00000b04:    1c60        `.      ADDS     r0,r4,#1
        0x00000b06:    b2c4        ..      UXTB     r4,r0
        0x00000b08:    2c0a        .,      CMP      r4,#0xa
        0x00000b0a:    dbf0        ..      BLT      0xaee ; LCD_clear_item + 6
        0x00000b0c:    bd10        ..      POP      {r4,pc}
    $d
        0x00000b0e:    0000        ..      DCW    0
        0x00000b10:    00fcfcfc    ....    DCD    16579836
        0x00000b14:    20202020            DCD    538976288
        0x00000b18:    20202020            DCD    538976288
        0x00000b1c:    20202020            DCD    538976288
        0x00000b20:    20202020            DCD    538976288
        0x00000b24:    20202020            DCD    538976288
        0x00000b28:    00002020      ..    DCD    8224
    $t
    i.LCD_show_arrow
    LCD_show_arrow
        0x00000b2c:    b570        p.      PUSH     {r4-r6,lr}
        0x00000b2e:    4604        .F      MOV      r4,r0
        0x00000b30:    460d        .F      MOV      r5,r1
        0x00000b32:    4616        .F      MOV      r6,r2
        0x00000b34:    481f        .H      LDR      r0,[pc,#124] ; [0xbb4] = 0x2000000e
        0x00000b36:    7800        .x      LDRB     r0,[r0,#0]
        0x00000b38:    1e40        @.      SUBS     r0,r0,#1
        0x00000b3a:    eb000040    ..@.    ADD      r0,r0,r0,LSL #1
        0x00000b3e:    00c0        ..      LSLS     r0,r0,#3
        0x00000b40:    f1000178    ..x.    ADD      r1,r0,#0x78
        0x00000b44:    2300        .#      MOVS     r3,#0
        0x00000b46:    a21c        ..      ADR      r2,{pc}+0x72 ; 0xbb8
        0x00000b48:    f44f70d9    O..p    MOV      r0,#0x1b2
        0x00000b4c:    f7ffff02    ....    BL       LCD_Show_ASCII ; 0x954
        0x00000b50:    bb46        F.      CBNZ     r6,0xba4 ; LCD_show_arrow + 120
        0x00000b52:    2d01        .-      CMP      r5,#1
        0x00000b54:    d105        ..      BNE      0xb62 ; LCD_show_arrow + 54
        0x00000b56:    4817        .H      LDR      r0,[pc,#92] ; [0xbb4] = 0x2000000e
        0x00000b58:    7800        .x      LDRB     r0,[r0,#0]
        0x00000b5a:    1c40        @.      ADDS     r0,r0,#1
        0x00000b5c:    4915        .I      LDR      r1,[pc,#84] ; [0xbb4] = 0x2000000e
        0x00000b5e:    7008        .p      STRB     r0,[r1,#0]
        0x00000b60:    e004        ..      B        0xb6c ; LCD_show_arrow + 64
        0x00000b62:    4814        .H      LDR      r0,[pc,#80] ; [0xbb4] = 0x2000000e
        0x00000b64:    7800        .x      LDRB     r0,[r0,#0]
        0x00000b66:    1e40        @.      SUBS     r0,r0,#1
        0x00000b68:    4912        .I      LDR      r1,[pc,#72] ; [0xbb4] = 0x2000000e
        0x00000b6a:    7008        .p      STRB     r0,[r1,#0]
        0x00000b6c:    4811        .H      LDR      r0,[pc,#68] ; [0xbb4] = 0x2000000e
        0x00000b6e:    7800        .x      LDRB     r0,[r0,#0]
        0x00000b70:    42a0        .B      CMP      r0,r4
        0x00000b72:    dd02        ..      BLE      0xb7a ; LCD_show_arrow + 78
        0x00000b74:    2001        .       MOVS     r0,#1
        0x00000b76:    490f        .I      LDR      r1,[pc,#60] ; [0xbb4] = 0x2000000e
        0x00000b78:    7008        .p      STRB     r0,[r1,#0]
        0x00000b7a:    480e        .H      LDR      r0,[pc,#56] ; [0xbb4] = 0x2000000e
        0x00000b7c:    7800        .x      LDRB     r0,[r0,#0]
        0x00000b7e:    2800        .(      CMP      r0,#0
        0x00000b80:    dc01        ..      BGT      0xb86 ; LCD_show_arrow + 90
        0x00000b82:    480c        .H      LDR      r0,[pc,#48] ; [0xbb4] = 0x2000000e
        0x00000b84:    7004        .p      STRB     r4,[r0,#0]
        0x00000b86:    480b        .H      LDR      r0,[pc,#44] ; [0xbb4] = 0x2000000e
        0x00000b88:    7800        .x      LDRB     r0,[r0,#0]
        0x00000b8a:    1e40        @.      SUBS     r0,r0,#1
        0x00000b8c:    eb000040    ..@.    ADD      r0,r0,r0,LSL #1
        0x00000b90:    00c0        ..      LSLS     r0,r0,#3
        0x00000b92:    f1000178    ..x.    ADD      r1,r0,#0x78
        0x00000b96:    2300        .#      MOVS     r3,#0
        0x00000b98:    a208        ..      ADR      r2,{pc}+0x24 ; 0xbbc
        0x00000b9a:    f44f70d9    O..p    MOV      r0,#0x1b2
        0x00000b9e:    f7fffed9    ....    BL       LCD_Show_ASCII ; 0x954
        0x00000ba2:    e006        ..      B        0xbb2 ; LCD_show_arrow + 134
        0x00000ba4:    2300        .#      MOVS     r3,#0
        0x00000ba6:    a205        ..      ADR      r2,{pc}+0x16 ; 0xbbc
        0x00000ba8:    2178        x!      MOVS     r1,#0x78
        0x00000baa:    f44f70d9    O..p    MOV      r0,#0x1b2
        0x00000bae:    f7fffed1    ....    BL       LCD_Show_ASCII ; 0x954
        0x00000bb2:    bd70        p.      POP      {r4-r6,pc}
    $d
        0x00000bb4:    2000000e    ...     DCD    536870926
        0x00000bb8:    00000020     ...    DCD    32
        0x00000bbc:    0000003c    <...    DCD    60
    $t
    i.LCD_show_item
    LCD_show_item
        0x00000bc0:    b510        ..      PUSH     {r4,lr}
        0x00000bc2:    2000        .       MOVS     r0,#0
        0x00000bc4:    4917        .I      LDR      r1,[pc,#92] ; [0xc24] = 0x2000000d
        0x00000bc6:    7008        .p      STRB     r0,[r1,#0]
        0x00000bc8:    f7ffff8e    ....    BL       LCD_clear_item ; 0xae8
        0x00000bcc:    2201        ."      MOVS     r2,#1
        0x00000bce:    2100        .!      MOVS     r1,#0
        0x00000bd0:    2005        .       MOVS     r0,#5
        0x00000bd2:    f7ffffab    ....    BL       LCD_show_arrow ; 0xb2c
        0x00000bd6:    2001        .       MOVS     r0,#1
        0x00000bd8:    4913        .I      LDR      r1,[pc,#76] ; [0xc28] = 0x2000000e
        0x00000bda:    7008        .p      STRB     r0,[r1,#0]
        0x00000bdc:    2300        .#      MOVS     r3,#0
        0x00000bde:    a213        ..      ADR      r2,{pc}+0x4e ; 0xc2c
        0x00000be0:    2178        x!      MOVS     r1,#0x78
        0x00000be2:    f44f7091    O..p    MOV      r0,#0x122
        0x00000be6:    f7fffeb5    ....    BL       LCD_Show_ASCII ; 0x954
        0x00000bea:    2300        .#      MOVS     r3,#0
        0x00000bec:    a212        ..      ADR      r2,{pc}+0x4c ; 0xc38
        0x00000bee:    2190        .!      MOVS     r1,#0x90
        0x00000bf0:    f44f7091    O..p    MOV      r0,#0x122
        0x00000bf4:    f7fffeae    ....    BL       LCD_Show_ASCII ; 0x954
        0x00000bf8:    2300        .#      MOVS     r3,#0
        0x00000bfa:    a212        ..      ADR      r2,{pc}+0x4a ; 0xc44
        0x00000bfc:    21a8        .!      MOVS     r1,#0xa8
        0x00000bfe:    f44f7091    O..p    MOV      r0,#0x122
        0x00000c02:    f7fffea7    ....    BL       LCD_Show_ASCII ; 0x954
        0x00000c06:    2300        .#      MOVS     r3,#0
        0x00000c08:    a212        ..      ADR      r2,{pc}+0x4c ; 0xc54
        0x00000c0a:    21c0        .!      MOVS     r1,#0xc0
        0x00000c0c:    f44f7091    O..p    MOV      r0,#0x122
        0x00000c10:    f7fffea0    ....    BL       LCD_Show_ASCII ; 0x954
        0x00000c14:    2300        .#      MOVS     r3,#0
        0x00000c16:    a213        ..      ADR      r2,{pc}+0x4e ; 0xc64
        0x00000c18:    21d8        .!      MOVS     r1,#0xd8
        0x00000c1a:    f44f7091    O..p    MOV      r0,#0x122
        0x00000c1e:    f7fffe99    ....    BL       LCD_Show_ASCII ; 0x954
        0x00000c22:    bd10        ..      POP      {r4,pc}
    $d
        0x00000c24:    2000000d    ...     DCD    536870925
        0x00000c28:    2000000e    ...     DCD    536870926
        0x00000c2c:    2044454c    LED     DCD    541345100
        0x00000c30:    65646f6d    mode    DCD    1701080941
        0x00000c34:    00003a6c    l:..    DCD    14956
        0x00000c38:    20737953    Sys     DCD    544438611
        0x00000c3c:    3a746573    set:    DCD    980706675
        0x00000c40:    00000000    ....    DCD    0
        0x00000c44:    20737953    Sys     DCD    544438611
        0x00000c48:    696e6f6d    moni    DCD    1768845165
        0x00000c4c:    3a726f74    tor:    DCD    980578164
        0x00000c50:    00000000    ....    DCD    0
        0x00000c54:    65636341    Acce    DCD    1701012289
        0x00000c58:    6172656c    lera    DCD    1634887020
        0x00000c5c:    20726f74    tor     DCD    544370548
        0x00000c60:    00545352    RST.    DCD    5526354
        0x00000c64:    65636341    Acce    DCD    1701012289
        0x00000c68:    6172656c    lera    DCD    1634887020
        0x00000c6c:    20726f74    tor     DCD    544370548
        0x00000c70:    004e5552    RUN.    DCD    5133650
    $t
    i.LCD_show_sys_set
    LCD_show_sys_set
        0x00000c74:    b51c        ..      PUSH     {r2-r4,lr}
        0x00000c76:    2001        .       MOVS     r0,#1
        0x00000c78:    f000fb04    ....    BL       SmartCamera_get_info ; 0x1284
        0x00000c7c:    4604        .F      MOV      r4,r0
        0x00000c7e:    2064        d       MOVS     r0,#0x64
        0x00000c80:    fbb4f0f0    ....    UDIV     r0,r4,r0
        0x00000c84:    3030        00      ADDS     r0,r0,#0x30
        0x00000c86:    b2c0        ..      UXTB     r0,r0
        0x00000c88:    f88d0000    ....    STRB     r0,[sp,#0]
        0x00000c8c:    2064        d       MOVS     r0,#0x64
        0x00000c8e:    fbb4f1f0    ....    UDIV     r1,r4,r0
        0x00000c92:    fb004011    ...@    MLS      r0,r0,r1,r4
        0x00000c96:    210a        .!      MOVS     r1,#0xa
        0x00000c98:    fbb0f0f1    ....    UDIV     r0,r0,r1
        0x00000c9c:    3030        00      ADDS     r0,r0,#0x30
        0x00000c9e:    f88d0001    ....    STRB     r0,[sp,#1]
        0x00000ca2:    2064        d       MOVS     r0,#0x64
        0x00000ca4:    fbb4f1f0    ....    UDIV     r1,r4,r0
        0x00000ca8:    fb004011    ...@    MLS      r0,r0,r1,r4
        0x00000cac:    210a        .!      MOVS     r1,#0xa
        0x00000cae:    fbb0f2f1    ....    UDIV     r2,r0,r1
        0x00000cb2:    fb010012    ....    MLS      r0,r1,r2,r0
        0x00000cb6:    3030        00      ADDS     r0,r0,#0x30
        0x00000cb8:    f88d0002    ....    STRB     r0,[sp,#2]
        0x00000cbc:    2000        .       MOVS     r0,#0
        0x00000cbe:    f88d0003    ....    STRB     r0,[sp,#3]
        0x00000cc2:    2300        .#      MOVS     r3,#0
        0x00000cc4:    466a        jF      MOV      r2,sp
        0x00000cc6:    2178        x!      MOVS     r1,#0x78
        0x00000cc8:    f44f70c1    O..p    MOV      r0,#0x182
        0x00000ccc:    f7fffe42    ..B.    BL       LCD_Show_ASCII ; 0x954
        0x00000cd0:    2002        .       MOVS     r0,#2
        0x00000cd2:    f000fad7    ....    BL       SmartCamera_get_info ; 0x1284
        0x00000cd6:    4604        .F      MOV      r4,r0
        0x00000cd8:    2064        d       MOVS     r0,#0x64
        0x00000cda:    fbb4f0f0    ....    UDIV     r0,r4,r0
        0x00000cde:    3030        00      ADDS     r0,r0,#0x30
        0x00000ce0:    b2c0        ..      UXTB     r0,r0
        0x00000ce2:    f88d0000    ....    STRB     r0,[sp,#0]
        0x00000ce6:    2064        d       MOVS     r0,#0x64
        0x00000ce8:    fbb4f1f0    ....    UDIV     r1,r4,r0
        0x00000cec:    fb004011    ...@    MLS      r0,r0,r1,r4
        0x00000cf0:    210a        .!      MOVS     r1,#0xa
        0x00000cf2:    fbb0f0f1    ....    UDIV     r0,r0,r1
        0x00000cf6:    3030        00      ADDS     r0,r0,#0x30
        0x00000cf8:    f88d0001    ....    STRB     r0,[sp,#1]
        0x00000cfc:    2064        d       MOVS     r0,#0x64
        0x00000cfe:    fbb4f1f0    ....    UDIV     r1,r4,r0
        0x00000d02:    fb004011    ...@    MLS      r0,r0,r1,r4
        0x00000d06:    210a        .!      MOVS     r1,#0xa
        0x00000d08:    fbb0f2f1    ....    UDIV     r2,r0,r1
        0x00000d0c:    fb010012    ....    MLS      r0,r1,r2,r0
        0x00000d10:    3030        00      ADDS     r0,r0,#0x30
        0x00000d12:    f88d0002    ....    STRB     r0,[sp,#2]
        0x00000d16:    2300        .#      MOVS     r3,#0
        0x00000d18:    466a        jF      MOV      r2,sp
        0x00000d1a:    2190        .!      MOVS     r1,#0x90
        0x00000d1c:    f44f70c1    O..p    MOV      r0,#0x182
        0x00000d20:    f7fffe18    ....    BL       LCD_Show_ASCII ; 0x954
        0x00000d24:    2003        .       MOVS     r0,#3
        0x00000d26:    f000faad    ....    BL       SmartCamera_get_info ; 0x1284
        0x00000d2a:    4604        .F      MOV      r4,r0
        0x00000d2c:    2064        d       MOVS     r0,#0x64
        0x00000d2e:    fbb4f0f0    ....    UDIV     r0,r4,r0
        0x00000d32:    3030        00      ADDS     r0,r0,#0x30
        0x00000d34:    b2c0        ..      UXTB     r0,r0
        0x00000d36:    f88d0000    ....    STRB     r0,[sp,#0]
        0x00000d3a:    2064        d       MOVS     r0,#0x64
        0x00000d3c:    fbb4f1f0    ....    UDIV     r1,r4,r0
        0x00000d40:    fb004011    ...@    MLS      r0,r0,r1,r4
        0x00000d44:    210a        .!      MOVS     r1,#0xa
        0x00000d46:    fbb0f0f1    ....    UDIV     r0,r0,r1
        0x00000d4a:    3030        00      ADDS     r0,r0,#0x30
        0x00000d4c:    f88d0001    ....    STRB     r0,[sp,#1]
        0x00000d50:    2064        d       MOVS     r0,#0x64
        0x00000d52:    fbb4f1f0    ....    UDIV     r1,r4,r0
        0x00000d56:    fb004011    ...@    MLS      r0,r0,r1,r4
        0x00000d5a:    210a        .!      MOVS     r1,#0xa
        0x00000d5c:    fbb0f2f1    ....    UDIV     r2,r0,r1
        0x00000d60:    fb010012    ....    MLS      r0,r1,r2,r0
        0x00000d64:    3030        00      ADDS     r0,r0,#0x30
        0x00000d66:    f88d0002    ....    STRB     r0,[sp,#2]
        0x00000d6a:    2300        .#      MOVS     r3,#0
        0x00000d6c:    466a        jF      MOV      r2,sp
        0x00000d6e:    21a8        .!      MOVS     r1,#0xa8
        0x00000d70:    f44f70c1    O..p    MOV      r0,#0x182
        0x00000d74:    f7fffdee    ....    BL       LCD_Show_ASCII ; 0x954
        0x00000d78:    2004        .       MOVS     r0,#4
        0x00000d7a:    f000fa83    ....    BL       SmartCamera_get_info ; 0x1284
        0x00000d7e:    4604        .F      MOV      r4,r0
        0x00000d80:    2064        d       MOVS     r0,#0x64
        0x00000d82:    fbb4f0f0    ....    UDIV     r0,r4,r0
        0x00000d86:    3030        00      ADDS     r0,r0,#0x30
        0x00000d88:    b2c0        ..      UXTB     r0,r0
        0x00000d8a:    f88d0000    ....    STRB     r0,[sp,#0]
        0x00000d8e:    2064        d       MOVS     r0,#0x64
        0x00000d90:    fbb4f1f0    ....    UDIV     r1,r4,r0
        0x00000d94:    fb004011    ...@    MLS      r0,r0,r1,r4
        0x00000d98:    210a        .!      MOVS     r1,#0xa
        0x00000d9a:    fbb0f0f1    ....    UDIV     r0,r0,r1
        0x00000d9e:    3030        00      ADDS     r0,r0,#0x30
        0x00000da0:    f88d0001    ....    STRB     r0,[sp,#1]
        0x00000da4:    2064        d       MOVS     r0,#0x64
        0x00000da6:    fbb4f1f0    ....    UDIV     r1,r4,r0
        0x00000daa:    fb004011    ...@    MLS      r0,r0,r1,r4
        0x00000dae:    210a        .!      MOVS     r1,#0xa
        0x00000db0:    fbb0f2f1    ....    UDIV     r2,r0,r1
        0x00000db4:    fb010012    ....    MLS      r0,r1,r2,r0
        0x00000db8:    3030        00      ADDS     r0,r0,#0x30
        0x00000dba:    f88d0002    ....    STRB     r0,[sp,#2]
        0x00000dbe:    2300        .#      MOVS     r3,#0
        0x00000dc0:    466a        jF      MOV      r2,sp
        0x00000dc2:    21c0        .!      MOVS     r1,#0xc0
        0x00000dc4:    f44f70c1    O..p    MOV      r0,#0x182
        0x00000dc8:    f7fffdc4    ....    BL       LCD_Show_ASCII ; 0x954
        0x00000dcc:    bd1c        ..      POP      {r2-r4,pc}
        0x00000dce:    0000        ..      MOVS     r0,r0
    i.LCD_show_ui01
    LCD_show_ui01
        0x00000dd0:    b510        ..      PUSH     {r4,lr}
        0x00000dd2:    2001        .       MOVS     r0,#1
        0x00000dd4:    4914        .I      LDR      r1,[pc,#80] ; [0xe28] = 0x2000000d
        0x00000dd6:    7008        .p      STRB     r0,[r1,#0]
        0x00000dd8:    f7fffe86    ....    BL       LCD_clear_item ; 0xae8
        0x00000ddc:    2201        ."      MOVS     r2,#1
        0x00000dde:    2100        .!      MOVS     r1,#0
        0x00000de0:    2003        .       MOVS     r0,#3
        0x00000de2:    f7fffea3    ....    BL       LCD_show_arrow ; 0xb2c
        0x00000de6:    2001        .       MOVS     r0,#1
        0x00000de8:    4910        .I      LDR      r1,[pc,#64] ; [0xe2c] = 0x2000000e
        0x00000dea:    7008        .p      STRB     r0,[r1,#0]
        0x00000dec:    2300        .#      MOVS     r3,#0
        0x00000dee:    a210        ..      ADR      r2,{pc}+0x42 ; 0xe30
        0x00000df0:    2178        x!      MOVS     r1,#0x78
        0x00000df2:    f44f7091    O..p    MOV      r0,#0x122
        0x00000df6:    f7fffdad    ....    BL       LCD_Show_ASCII ; 0x954
        0x00000dfa:    2300        .#      MOVS     r3,#0
        0x00000dfc:    a20f        ..      ADR      r2,{pc}+0x40 ; 0xe3c
        0x00000dfe:    2190        .!      MOVS     r1,#0x90
        0x00000e00:    f44f7091    O..p    MOV      r0,#0x122
        0x00000e04:    f7fffda6    ....    BL       LCD_Show_ASCII ; 0x954
        0x00000e08:    2300        .#      MOVS     r3,#0
        0x00000e0a:    a20f        ..      ADR      r2,{pc}+0x3e ; 0xe48
        0x00000e0c:    21a8        .!      MOVS     r1,#0xa8
        0x00000e0e:    f44f7091    O..p    MOV      r0,#0x122
        0x00000e12:    f7fffd9f    ....    BL       LCD_Show_ASCII ; 0x954
        0x00000e16:    2300        .#      MOVS     r3,#0
        0x00000e18:    a20c        ..      ADR      r2,{pc}+0x34 ; 0xe4c
        0x00000e1a:    21c0        .!      MOVS     r1,#0xc0
        0x00000e1c:    f44f7091    O..p    MOV      r0,#0x122
        0x00000e20:    f7fffd98    ....    BL       LCD_Show_ASCII ; 0x954
        0x00000e24:    bd10        ..      POP      {r4,pc}
    $d
        0x00000e26:    0000        ..      DCW    0
        0x00000e28:    2000000d    ...     DCD    536870925
        0x00000e2c:    2000000e    ...     DCD    536870926
        0x00000e30:    7466654c    Left    DCD    1952867660
        0x00000e34:    6c6f7220     rol    DCD    1819243040
        0x00000e38:    0000006c    l...    DCD    108
        0x00000e3c:    68676952    Righ    DCD    1751607634
        0x00000e40:    6f722074    t ro    DCD    1869750388
        0x00000e44:    00006c6c    ll..    DCD    27756
        0x00000e48:    006c6c41    All.    DCD    7105601
        0x00000e4c:    6b636142    Back    DCD    1801675074
        0x00000e50:    00000000    ....    DCD    0
    $t
    i.LCD_show_ui02
    LCD_show_ui02
        0x00000e54:    b510        ..      PUSH     {r4,lr}
        0x00000e56:    2002        .       MOVS     r0,#2
        0x00000e58:    4918        .I      LDR      r1,[pc,#96] ; [0xebc] = 0x2000000d
        0x00000e5a:    7008        .p      STRB     r0,[r1,#0]
        0x00000e5c:    f7fffe44    ..D.    BL       LCD_clear_item ; 0xae8
        0x00000e60:    2201        ."      MOVS     r2,#1
        0x00000e62:    2100        .!      MOVS     r1,#0
        0x00000e64:    2005        .       MOVS     r0,#5
        0x00000e66:    f7fffe61    ..a.    BL       LCD_show_arrow ; 0xb2c
        0x00000e6a:    2001        .       MOVS     r0,#1
        0x00000e6c:    4914        .I      LDR      r1,[pc,#80] ; [0xec0] = 0x2000000e
        0x00000e6e:    7008        .p      STRB     r0,[r1,#0]
        0x00000e70:    2300        .#      MOVS     r3,#0
        0x00000e72:    a214        ..      ADR      r2,{pc}+0x52 ; 0xec4
        0x00000e74:    2178        x!      MOVS     r1,#0x78
        0x00000e76:    f44f7091    O..p    MOV      r0,#0x122
        0x00000e7a:    f7fffd6b    ..k.    BL       LCD_Show_ASCII ; 0x954
        0x00000e7e:    2300        .#      MOVS     r3,#0
        0x00000e80:    a211        ..      ADR      r2,{pc}+0x48 ; 0xec8
        0x00000e82:    2190        .!      MOVS     r1,#0x90
        0x00000e84:    f44f7091    O..p    MOV      r0,#0x122
        0x00000e88:    f7fffd64    ..d.    BL       LCD_Show_ASCII ; 0x954
        0x00000e8c:    2300        .#      MOVS     r3,#0
        0x00000e8e:    a20f        ..      ADR      r2,{pc}+0x3e ; 0xecc
        0x00000e90:    21a8        .!      MOVS     r1,#0xa8
        0x00000e92:    f44f7091    O..p    MOV      r0,#0x122
        0x00000e96:    f7fffd5d    ..].    BL       LCD_Show_ASCII ; 0x954
        0x00000e9a:    2300        .#      MOVS     r3,#0
        0x00000e9c:    a20e        ..      ADR      r2,{pc}+0x3c ; 0xed8
        0x00000e9e:    21c0        .!      MOVS     r1,#0xc0
        0x00000ea0:    f44f7091    O..p    MOV      r0,#0x122
        0x00000ea4:    f7fffd56    ..V.    BL       LCD_Show_ASCII ; 0x954
        0x00000ea8:    2300        .#      MOVS     r3,#0
        0x00000eaa:    a20e        ..      ADR      r2,{pc}+0x3a ; 0xee4
        0x00000eac:    21d8        .!      MOVS     r1,#0xd8
        0x00000eae:    f44f7091    O..p    MOV      r0,#0x122
        0x00000eb2:    f7fffd4f    ..O.    BL       LCD_Show_ASCII ; 0x954
        0x00000eb6:    f7fffedd    ....    BL       LCD_show_sys_set ; 0xc74
        0x00000eba:    bd10        ..      POP      {r4,pc}
    $d
        0x00000ebc:    2000000d    ...     DCD    536870925
        0x00000ec0:    2000000e    ...     DCD    536870926
        0x00000ec4:    003a2b59    Y+:.    DCD    3812185
        0x00000ec8:    003a2d59    Y-:.    DCD    3812697
        0x00000ecc:    65726854    Thre    DCD    1701996628
        0x00000ed0:    6c6f6873    shol    DCD    1819240563
        0x00000ed4:    00003a64    d:..    DCD    14948
        0x00000ed8:    70656542    Beep    DCD    1885693250
        0x00000edc:    6d697420     tim    DCD    1835627552
        0x00000ee0:    00003a65    e:..    DCD    14949
        0x00000ee4:    6b636142    Back    DCD    1801675074
        0x00000ee8:    00000000    ....    DCD    0
    $t
    i.LCD_show_ui03
    LCD_show_ui03
        0x00000eec:    b510        ..      PUSH     {r4,lr}
        0x00000eee:    2003        .       MOVS     r0,#3
        0x00000ef0:    4920         I      LDR      r1,[pc,#128] ; [0xf74] = 0x2000000d
        0x00000ef2:    7008        .p      STRB     r0,[r1,#0]
        0x00000ef4:    2001        .       MOVS     r0,#1
        0x00000ef6:    4920         I      LDR      r1,[pc,#128] ; [0xf78] = 0x2000000e
        0x00000ef8:    7008        .p      STRB     r0,[r1,#0]
        0x00000efa:    f7fffdf5    ....    BL       LCD_clear_item ; 0xae8
        0x00000efe:    2300        .#      MOVS     r3,#0
        0x00000f00:    a21e        ..      ADR      r2,{pc}+0x7c ; 0xf7c
        0x00000f02:    2178        x!      MOVS     r1,#0x78
        0x00000f04:    f44f7091    O..p    MOV      r0,#0x122
        0x00000f08:    f7fffd24    ..$.    BL       LCD_Show_ASCII ; 0x954
        0x00000f0c:    2300        .#      MOVS     r3,#0
        0x00000f0e:    a21e        ..      ADR      r2,{pc}+0x7a ; 0xf88
        0x00000f10:    2190        .!      MOVS     r1,#0x90
        0x00000f12:    f44f7091    O..p    MOV      r0,#0x122
        0x00000f16:    f7fffd1d    ....    BL       LCD_Show_ASCII ; 0x954
        0x00000f1a:    2300        .#      MOVS     r3,#0
        0x00000f1c:    a220         .      ADR      r2,{pc}+0x84 ; 0xfa0
        0x00000f1e:    21a8        .!      MOVS     r1,#0xa8
        0x00000f20:    f44f7091    O..p    MOV      r0,#0x122
        0x00000f24:    f7fffd16    ....    BL       LCD_Show_ASCII ; 0x954
        0x00000f28:    2300        .#      MOVS     r3,#0
        0x00000f2a:    a223        #.      ADR      r2,{pc}+0x8e ; 0xfb8
        0x00000f2c:    21c0        .!      MOVS     r1,#0xc0
        0x00000f2e:    f44f7091    O..p    MOV      r0,#0x122
        0x00000f32:    f7fffd0f    ....    BL       LCD_Show_ASCII ; 0x954
        0x00000f36:    2300        .#      MOVS     r3,#0
        0x00000f38:    a225        %.      ADR      r2,{pc}+0x98 ; 0xfd0
        0x00000f3a:    21d8        .!      MOVS     r1,#0xd8
        0x00000f3c:    f44f7091    O..p    MOV      r0,#0x122
        0x00000f40:    f7fffd08    ....    BL       LCD_Show_ASCII ; 0x954
        0x00000f44:    2300        .#      MOVS     r3,#0
        0x00000f46:    a228        (.      ADR      r2,{pc}+0xa2 ; 0xfe8
        0x00000f48:    21f0        .!      MOVS     r1,#0xf0
        0x00000f4a:    f44f7091    O..p    MOV      r0,#0x122
        0x00000f4e:    f7fffd01    ....    BL       LCD_Show_ASCII ; 0x954
        0x00000f52:    2300        .#      MOVS     r3,#0
        0x00000f54:    a22a        *.      ADR      r2,{pc}+0xac ; 0x1000
        0x00000f56:    f44f7184    O..q    MOV      r1,#0x108
        0x00000f5a:    f44f7091    O..p    MOV      r0,#0x122
        0x00000f5e:    f7fffcf9    ....    BL       LCD_Show_ASCII ; 0x954
        0x00000f62:    2300        .#      MOVS     r3,#0
        0x00000f64:    a22c        ,.      ADR      r2,{pc}+0xb4 ; 0x1018
        0x00000f66:    f44f7190    O..q    MOV      r1,#0x120
        0x00000f6a:    1c88        ..      ADDS     r0,r1,#2
        0x00000f6c:    f7fffcf2    ....    BL       LCD_Show_ASCII ; 0x954
        0x00000f70:    bd10        ..      POP      {r4,pc}
    $d
        0x00000f72:    0000        ..      DCW    0
        0x00000f74:    2000000d    ...     DCD    536870925
        0x00000f78:    2000000e    ...     DCD    536870926
        0x00000f7c:    6f6c6341    Aclo    DCD    1869374273
        0x00000f80:    74532072    r St    DCD    1951604850
        0x00000f84:    00003a61    a:..    DCD    14945
        0x00000f88:    20687445    Eth     DCD    543716421
        0x00000f8c:    65657073    spee    DCD    1701146739
        0x00000f90:    20203a64    d:      DCD    538983012
        0x00000f94:    20202020            DCD    538976288
        0x00000f98:    624b2020      Kb    DCD    1649090592
        0x00000f9c:    00007370    ps..    DCD    29552
        0x00000fa0:    646c6156    Vald    DCD    1684824406
        0x00000fa4:    70732061    a sp    DCD    1886593121
        0x00000fa8:    3a646565    eed:    DCD    979658085
        0x00000fac:    20202020            DCD    538976288
        0x00000fb0:    624b2020      Kb    DCD    1649090592
        0x00000fb4:    00007370    ps..    DCD    29552
        0x00000fb8:    6d617246    Fram    DCD    1835102790
        0x00000fbc:    70732065    e sp    DCD    1886593125
        0x00000fc0:    3a646565    eed:    DCD    979658085
        0x00000fc4:    20202020            DCD    538976288
        0x00000fc8:    70662020      fp    DCD    1885741088
        0x00000fcc:    00000073    s...    DCD    115
        0x00000fd0:    726f7453    Stor    DCD    1919906899
        0x00000fd4:    70732065    e sp    DCD    1886593125
        0x00000fd8:    3a646565    eed:    DCD    979658085
        0x00000fdc:    20202020            DCD    538976288
        0x00000fe0:    70662020      fp    DCD    1885741088
        0x00000fe4:    00000073    s...    DCD    115
        0x00000fe8:    20687445    Eth     DCD    543716421
        0x00000fec:    73756472    rdus    DCD    1937073266
        0x00000ff0:    3a776465    edw:    DCD    980903013
        0x00000ff4:    20202020            DCD    538976288
        0x00000ff8:    79422020      By    DCD    2034376736
        0x00000ffc:    00006574    te..    DCD    25972
        0x00001000:    20636556    Vec     DCD    543384918
        0x00001004:    73756472    rdus    DCD    1937073266
        0x00001008:    3a776465    edw:    DCD    980903013
        0x0000100c:    20202020            DCD    538976288
        0x00001010:    79422020      By    DCD    2034376736
        0x00001014:    00006574    te..    DCD    25972
        0x00001018:    20414756    VGA     DCD    541149014
        0x0000101c:    73756472    rdus    DCD    1937073266
        0x00001020:    3a776465    edw:    DCD    980903013
        0x00001024:    20202020            DCD    538976288
        0x00001028:    79422020      By    DCD    2034376736
        0x0000102c:    00006574    te..    DCD    25972
    $t
    i.Lcd_Init
    Lcd_Init
        0x00001030:    b510        ..      PUSH     {r4,lr}
        0x00001032:    2100        .!      MOVS     r1,#0
        0x00001034:    200e        .       MOVS     r0,#0xe
        0x00001036:    f7fffae8    ....    BL       GPIO_output ; 0x60a
        0x0000103a:    20c8        .       MOVS     r0,#0xc8
        0x0000103c:    f000f9a2    ....    BL       delay_ms ; 0x1384
        0x00001040:    2101        .!      MOVS     r1,#1
        0x00001042:    200e        .       MOVS     r0,#0xe
        0x00001044:    f7fffae1    ....    BL       GPIO_output ; 0x60a
        0x00001048:    2014        .       MOVS     r0,#0x14
        0x0000104a:    f000f99b    ....    BL       delay_ms ; 0x1384
        0x0000104e:    2101        .!      MOVS     r1,#1
        0x00001050:    2000        .       MOVS     r0,#0
        0x00001052:    f7fffada    ....    BL       GPIO_output ; 0x60a
        0x00001056:    2011        .       MOVS     r0,#0x11
        0x00001058:    f7fffd1c    ....    BL       LCD_WR_REG ; 0xa94
        0x0000105c:    203c        <       MOVS     r0,#0x3c
        0x0000105e:    f000f991    ....    BL       delay_ms ; 0x1384
        0x00001062:    20f2        .       MOVS     r0,#0xf2
        0x00001064:    f7fffd16    ....    BL       LCD_WR_REG ; 0xa94
        0x00001068:    2018        .       MOVS     r0,#0x18
        0x0000106a:    f7fffd09    ....    BL       LCD_WR_DATA8 ; 0xa80
        0x0000106e:    20a3        .       MOVS     r0,#0xa3
        0x00001070:    f7fffd06    ....    BL       LCD_WR_DATA8 ; 0xa80
        0x00001074:    2012        .       MOVS     r0,#0x12
        0x00001076:    f7fffd03    ....    BL       LCD_WR_DATA8 ; 0xa80
        0x0000107a:    2002        .       MOVS     r0,#2
        0x0000107c:    f7fffd00    ....    BL       LCD_WR_DATA8 ; 0xa80
        0x00001080:    20b2        .       MOVS     r0,#0xb2
        0x00001082:    f7fffcfd    ....    BL       LCD_WR_DATA8 ; 0xa80
        0x00001086:    2012        .       MOVS     r0,#0x12
        0x00001088:    f7fffcfa    ....    BL       LCD_WR_DATA8 ; 0xa80
        0x0000108c:    20ff        .       MOVS     r0,#0xff
        0x0000108e:    f7fffcf7    ....    BL       LCD_WR_DATA8 ; 0xa80
        0x00001092:    2010        .       MOVS     r0,#0x10
        0x00001094:    f7fffcf4    ....    BL       LCD_WR_DATA8 ; 0xa80
        0x00001098:    2000        .       MOVS     r0,#0
        0x0000109a:    f7fffcf1    ....    BL       LCD_WR_DATA8 ; 0xa80
        0x0000109e:    20f8        .       MOVS     r0,#0xf8
        0x000010a0:    f7fffcf8    ....    BL       LCD_WR_REG ; 0xa94
        0x000010a4:    2021        !       MOVS     r0,#0x21
        0x000010a6:    f7fffceb    ....    BL       LCD_WR_DATA8 ; 0xa80
        0x000010aa:    2004        .       MOVS     r0,#4
        0x000010ac:    f7fffce8    ....    BL       LCD_WR_DATA8 ; 0xa80
        0x000010b0:    2013        .       MOVS     r0,#0x13
        0x000010b2:    f7fffcef    ....    BL       LCD_WR_REG ; 0xa94
        0x000010b6:    2036        6       MOVS     r0,#0x36
        0x000010b8:    f7fffcec    ....    BL       LCD_WR_REG ; 0xa94
        0x000010bc:    2078        x       MOVS     r0,#0x78
        0x000010be:    f7fffcdf    ....    BL       LCD_WR_DATA8 ; 0xa80
        0x000010c2:    20b4        .       MOVS     r0,#0xb4
        0x000010c4:    f7fffce6    ....    BL       LCD_WR_REG ; 0xa94
        0x000010c8:    2002        .       MOVS     r0,#2
        0x000010ca:    f7fffcd9    ....    BL       LCD_WR_DATA8 ; 0xa80
        0x000010ce:    20b6        .       MOVS     r0,#0xb6
        0x000010d0:    f7fffce0    ....    BL       LCD_WR_REG ; 0xa94
        0x000010d4:    2002        .       MOVS     r0,#2
        0x000010d6:    f7fffcd3    ....    BL       LCD_WR_DATA8 ; 0xa80
        0x000010da:    2022        "       MOVS     r0,#0x22
        0x000010dc:    f7fffcd0    ....    BL       LCD_WR_DATA8 ; 0xa80
        0x000010e0:    20c1        .       MOVS     r0,#0xc1
        0x000010e2:    f7fffcd7    ....    BL       LCD_WR_REG ; 0xa94
        0x000010e6:    2041        A       MOVS     r0,#0x41
        0x000010e8:    f7fffcca    ....    BL       LCD_WR_DATA8 ; 0xa80
        0x000010ec:    20c5        .       MOVS     r0,#0xc5
        0x000010ee:    f7fffcd1    ....    BL       LCD_WR_REG ; 0xa94
        0x000010f2:    2000        .       MOVS     r0,#0
        0x000010f4:    f7fffcc4    ....    BL       LCD_WR_DATA8 ; 0xa80
        0x000010f8:    2018        .       MOVS     r0,#0x18
        0x000010fa:    f7fffcc1    ....    BL       LCD_WR_DATA8 ; 0xa80
        0x000010fe:    203a        :       MOVS     r0,#0x3a
        0x00001100:    f7fffcc8    ....    BL       LCD_WR_REG ; 0xa94
        0x00001104:    2066        f       MOVS     r0,#0x66
        0x00001106:    f7fffcbb    ....    BL       LCD_WR_DATA8 ; 0xa80
        0x0000110a:    2032        2       MOVS     r0,#0x32
        0x0000110c:    f000f93a    ..:.    BL       delay_ms ; 0x1384
        0x00001110:    20e0        .       MOVS     r0,#0xe0
        0x00001112:    f7fffcbf    ....    BL       LCD_WR_REG ; 0xa94
        0x00001116:    200f        .       MOVS     r0,#0xf
        0x00001118:    f7fffcb2    ....    BL       LCD_WR_DATA8 ; 0xa80
        0x0000111c:    201f        .       MOVS     r0,#0x1f
        0x0000111e:    f7fffcaf    ....    BL       LCD_WR_DATA8 ; 0xa80
        0x00001122:    201c        .       MOVS     r0,#0x1c
        0x00001124:    f7fffcac    ....    BL       LCD_WR_DATA8 ; 0xa80
        0x00001128:    200c        .       MOVS     r0,#0xc
        0x0000112a:    f7fffca9    ....    BL       LCD_WR_DATA8 ; 0xa80
        0x0000112e:    200f        .       MOVS     r0,#0xf
        0x00001130:    f7fffca6    ....    BL       LCD_WR_DATA8 ; 0xa80
        0x00001134:    2008        .       MOVS     r0,#8
        0x00001136:    f7fffca3    ....    BL       LCD_WR_DATA8 ; 0xa80
        0x0000113a:    2048        H       MOVS     r0,#0x48
        0x0000113c:    f7fffca0    ....    BL       LCD_WR_DATA8 ; 0xa80
        0x00001140:    2098        .       MOVS     r0,#0x98
        0x00001142:    f7fffc9d    ....    BL       LCD_WR_DATA8 ; 0xa80
        0x00001146:    2037        7       MOVS     r0,#0x37
        0x00001148:    f7fffc9a    ....    BL       LCD_WR_DATA8 ; 0xa80
        0x0000114c:    200a        .       MOVS     r0,#0xa
        0x0000114e:    f7fffc97    ....    BL       LCD_WR_DATA8 ; 0xa80
        0x00001152:    2013        .       MOVS     r0,#0x13
        0x00001154:    f7fffc94    ....    BL       LCD_WR_DATA8 ; 0xa80
        0x00001158:    2004        .       MOVS     r0,#4
        0x0000115a:    f7fffc91    ....    BL       LCD_WR_DATA8 ; 0xa80
        0x0000115e:    2011        .       MOVS     r0,#0x11
        0x00001160:    f7fffc8e    ....    BL       LCD_WR_DATA8 ; 0xa80
        0x00001164:    200d        .       MOVS     r0,#0xd
        0x00001166:    f7fffc8b    ....    BL       LCD_WR_DATA8 ; 0xa80
        0x0000116a:    2000        .       MOVS     r0,#0
        0x0000116c:    f7fffc88    ....    BL       LCD_WR_DATA8 ; 0xa80
        0x00001170:    20e1        .       MOVS     r0,#0xe1
        0x00001172:    f7fffc8f    ....    BL       LCD_WR_REG ; 0xa94
        0x00001176:    200f        .       MOVS     r0,#0xf
        0x00001178:    f7fffc82    ....    BL       LCD_WR_DATA8 ; 0xa80
        0x0000117c:    2032        2       MOVS     r0,#0x32
        0x0000117e:    f7fffc7f    ....    BL       LCD_WR_DATA8 ; 0xa80
        0x00001182:    202e        .       MOVS     r0,#0x2e
        0x00001184:    f7fffc7c    ..|.    BL       LCD_WR_DATA8 ; 0xa80
        0x00001188:    200b        .       MOVS     r0,#0xb
        0x0000118a:    f7fffc79    ..y.    BL       LCD_WR_DATA8 ; 0xa80
        0x0000118e:    200d        .       MOVS     r0,#0xd
        0x00001190:    f7fffc76    ..v.    BL       LCD_WR_DATA8 ; 0xa80
        0x00001194:    2005        .       MOVS     r0,#5
        0x00001196:    f7fffc73    ..s.    BL       LCD_WR_DATA8 ; 0xa80
        0x0000119a:    2047        G       MOVS     r0,#0x47
        0x0000119c:    f7fffc70    ..p.    BL       LCD_WR_DATA8 ; 0xa80
        0x000011a0:    2075        u       MOVS     r0,#0x75
        0x000011a2:    f7fffc6d    ..m.    BL       LCD_WR_DATA8 ; 0xa80
        0x000011a6:    2037        7       MOVS     r0,#0x37
        0x000011a8:    f7fffc6a    ..j.    BL       LCD_WR_DATA8 ; 0xa80
        0x000011ac:    2006        .       MOVS     r0,#6
        0x000011ae:    f7fffc67    ..g.    BL       LCD_WR_DATA8 ; 0xa80
        0x000011b2:    2010        .       MOVS     r0,#0x10
        0x000011b4:    f7fffc64    ..d.    BL       LCD_WR_DATA8 ; 0xa80
        0x000011b8:    2003        .       MOVS     r0,#3
        0x000011ba:    f7fffc61    ..a.    BL       LCD_WR_DATA8 ; 0xa80
        0x000011be:    2024        $       MOVS     r0,#0x24
        0x000011c0:    f7fffc5e    ..^.    BL       LCD_WR_DATA8 ; 0xa80
        0x000011c4:    2020                MOVS     r0,#0x20
        0x000011c6:    f7fffc5b    ..[.    BL       LCD_WR_DATA8 ; 0xa80
        0x000011ca:    2000        .       MOVS     r0,#0
        0x000011cc:    f7fffc58    ..X.    BL       LCD_WR_DATA8 ; 0xa80
        0x000011d0:    2011        .       MOVS     r0,#0x11
        0x000011d2:    f7fffc5f    .._.    BL       LCD_WR_REG ; 0xa94
        0x000011d6:    2078        x       MOVS     r0,#0x78
        0x000011d8:    f000f8d4    ....    BL       delay_ms ; 0x1384
        0x000011dc:    2029        )       MOVS     r0,#0x29
        0x000011de:    f7fffc59    ..Y.    BL       LCD_WR_REG ; 0xa94
        0x000011e2:    202c        ,       MOVS     r0,#0x2c
        0x000011e4:    f7fffc56    ..V.    BL       LCD_WR_REG ; 0xa94
        0x000011e8:    2300        .#      MOVS     r3,#0
        0x000011ea:    461a        .F      MOV      r2,r3
        0x000011ec:    4619        .F      MOV      r1,r3
        0x000011ee:    4618        .F      MOV      r0,r3
        0x000011f0:    f7fffa2e    ....    BL       LCD_Address_Set ; 0x650
        0x000011f4:    bd10        ..      POP      {r4,pc}
    i.MemManageHandler
    MemManageHandler
        0x000011f6:    4770        pG      BX       lr
    i.NMIHandler
    NMIHandler
        0x000011f8:    4770        pG      BX       lr
        0x000011fa:    0000        ..      MOVS     r0,r0
    i.NVIC_Init
    NVIC_Init
        0x000011fc:    b570        p.      PUSH     {r4-r6,lr}
        0x000011fe:    2100        .!      MOVS     r1,#0
        0x00001200:    2300        .#      MOVS     r3,#0
        0x00001202:    220f        ."      MOVS     r2,#0xf
        0x00001204:    78c4        .x      LDRB     r4,[r0,#3]
        0x00001206:    b304        ..      CBZ      r4,0x124a ; NVIC_Init + 78
        0x00001208:    4c15        .L      LDR      r4,[pc,#84] ; [0x1260] = 0xe000ed0c
        0x0000120a:    6824        $h      LDR      r4,[r4,#0]
        0x0000120c:    f40464e0    ...d    AND      r4,r4,#0x700
        0x00001210:    f5c464e0    ...d    RSB      r4,r4,#0x700
        0x00001214:    0a21        !.      LSRS     r1,r4,#8
        0x00001216:    f1c10304    ....    RSB      r3,r1,#4
        0x0000121a:    40ca        .@      LSRS     r2,r2,r1
        0x0000121c:    7844        Dx      LDRB     r4,[r0,#1]
        0x0000121e:    fa04f103    ....    LSL      r1,r4,r3
        0x00001222:    7884        .x      LDRB     r4,[r0,#2]
        0x00001224:    4014        .@      ANDS     r4,r4,r2
        0x00001226:    4321        !C      ORRS     r1,r1,r4
        0x00001228:    0109        ..      LSLS     r1,r1,#4
        0x0000122a:    4c0e        .L      LDR      r4,[pc,#56] ; [0x1264] = 0xe000e400
        0x0000122c:    7806        .x      LDRB     r6,[r0,#0]
        0x0000122e:    55a1        .U      STRB     r1,[r4,r6]
        0x00001230:    7804        .x      LDRB     r4,[r0,#0]
        0x00001232:    f004051f    ....    AND      r5,r4,#0x1f
        0x00001236:    2401        .$      MOVS     r4,#1
        0x00001238:    40ac        .@      LSLS     r4,r4,r5
        0x0000123a:    7805        .x      LDRB     r5,[r0,#0]
        0x0000123c:    116d        m.      ASRS     r5,r5,#5
        0x0000123e:    00ad        ..      LSLS     r5,r5,#2
        0x00001240:    f10525e0    ...%    ADD      r5,r5,#0xe000e000
        0x00001244:    f8c54100    ...A    STR      r4,[r5,#0x100]
        0x00001248:    e009        ..      B        0x125e ; NVIC_Init + 98
        0x0000124a:    7804        .x      LDRB     r4,[r0,#0]
        0x0000124c:    f004051f    ....    AND      r5,r4,#0x1f
        0x00001250:    2401        .$      MOVS     r4,#1
        0x00001252:    40ac        .@      LSLS     r4,r4,r5
        0x00001254:    4d04        .M      LDR      r5,[pc,#16] ; [0x1268] = 0xe000e180
        0x00001256:    7806        .x      LDRB     r6,[r0,#0]
        0x00001258:    1176        v.      ASRS     r6,r6,#5
        0x0000125a:    f8454026    E.&@    STR      r4,[r5,r6,LSL #2]
        0x0000125e:    bd70        p.      POP      {r4-r6,pc}
    $d
        0x00001260:    e000ed0c    ....    DCD    3758157068
        0x00001264:    e000e400    ....    DCD    3758154752
        0x00001268:    e000e180    ....    DCD    3758154112
    $t
    i.NVIC_PriorityGroupConfig
    NVIC_PriorityGroupConfig
        0x0000126c:    4902        .I      LDR      r1,[pc,#8] ; [0x1278] = 0x5fa0000
        0x0000126e:    4301        .C      ORRS     r1,r1,r0
        0x00001270:    4a02        .J      LDR      r2,[pc,#8] ; [0x127c] = 0xe000ed0c
        0x00001272:    6011        .`      STR      r1,[r2,#0]
        0x00001274:    4770        pG      BX       lr
    $d
        0x00001276:    0000        ..      DCW    0
        0x00001278:    05fa0000    ....    DCD    100270080
        0x0000127c:    e000ed0c    ....    DCD    3758157068
    $t
    i.PendSVHandler
    PendSVHandler
        0x00001280:    4770        pG      BX       lr
    i.SVCHandler
    SVCHandler
        0x00001282:    4770        pG      BX       lr
    i.SmartCamera_get_info
    SmartCamera_get_info
        0x00001284:    4601        .F      MOV      r1,r0
        0x00001286:    b921        !.      CBNZ     r1,0x1292 ; SmartCamera_get_info + 14
        0x00001288:    4810        .H      LDR      r0,[pc,#64] ; [0x12cc] = 0x40001000
        0x0000128a:    6900        .i      LDR      r0,[r0,#0x10]
        0x0000128c:    f000000f    ....    AND      r0,r0,#0xf
        0x00001290:    4770        pG      BX       lr
        0x00001292:    2901        .)      CMP      r1,#1
        0x00001294:    d104        ..      BNE      0x12a0 ; SmartCamera_get_info + 28
        0x00001296:    480d        .H      LDR      r0,[pc,#52] ; [0x12cc] = 0x40001000
        0x00001298:    6900        .i      LDR      r0,[r0,#0x10]
        0x0000129a:    f3c02007    ...     UBFX     r0,r0,#8,#8
        0x0000129e:    e7f7        ..      B        0x1290 ; SmartCamera_get_info + 12
        0x000012a0:    2902        .)      CMP      r1,#2
        0x000012a2:    d104        ..      BNE      0x12ae ; SmartCamera_get_info + 42
        0x000012a4:    4809        .H      LDR      r0,[pc,#36] ; [0x12cc] = 0x40001000
        0x000012a6:    6900        .i      LDR      r0,[r0,#0x10]
        0x000012a8:    f3c04007    ...@    UBFX     r0,r0,#16,#8
        0x000012ac:    e7f0        ..      B        0x1290 ; SmartCamera_get_info + 12
        0x000012ae:    2903        .)      CMP      r1,#3
        0x000012b0:    d103        ..      BNE      0x12ba ; SmartCamera_get_info + 54
        0x000012b2:    4806        .H      LDR      r0,[pc,#24] ; [0x12cc] = 0x40001000
        0x000012b4:    6900        .i      LDR      r0,[r0,#0x10]
        0x000012b6:    0e00        ..      LSRS     r0,r0,#24
        0x000012b8:    e7ea        ..      B        0x1290 ; SmartCamera_get_info + 12
        0x000012ba:    2904        .)      CMP      r1,#4
        0x000012bc:    d103        ..      BNE      0x12c6 ; SmartCamera_get_info + 66
        0x000012be:    4803        .H      LDR      r0,[pc,#12] ; [0x12cc] = 0x40001000
        0x000012c0:    6940        @i      LDR      r0,[r0,#0x14]
        0x000012c2:    b2c0        ..      UXTB     r0,r0
        0x000012c4:    e7e4        ..      B        0x1290 ; SmartCamera_get_info + 12
        0x000012c6:    bf00        ..      NOP      
        0x000012c8:    e7e2        ..      B        0x1290 ; SmartCamera_get_info + 12
    $d
        0x000012ca:    0000        ..      DCW    0
        0x000012cc:    40001000    ...@    DCD    1073745920
    $t
    i.SmartCamera_init
    SmartCamera_init
        0x000012d0:    4805        .H      LDR      r0,[pc,#20] ; [0x12e8] = 0xc0a80202
        0x000012d2:    4906        .I      LDR      r1,[pc,#24] ; [0x12ec] = 0x40001000
        0x000012d4:    6048        H`      STR      r0,[r1,#4]
        0x000012d6:    1d00        ..      ADDS     r0,r0,#4
        0x000012d8:    6088        .`      STR      r0,[r1,#8]
        0x000012da:    4805        .H      LDR      r0,[pc,#20] ; [0x12f0] = 0x1f900000
        0x000012dc:    60c8        .`      STR      r0,[r1,#0xc]
        0x000012de:    01c0        ..      LSLS     r0,r0,#7
        0x000012e0:    6108        .a      STR      r0,[r1,#0x10]
        0x000012e2:    2002        .       MOVS     r0,#2
        0x000012e4:    6148        Ha      STR      r0,[r1,#0x14]
        0x000012e6:    4770        pG      BX       lr
    $d
        0x000012e8:    c0a80202    ....    DCD    3232236034
        0x000012ec:    40001000    ...@    DCD    1073745920
        0x000012f0:    1f900000    ....    DCD    529530880
    $t
    i.SmartCamera_reset
    SmartCamera_reset
        0x000012f4:    4803        .H      LDR      r0,[pc,#12] ; [0x1304] = 0x40001000
        0x000012f6:    6800        .h      LDR      r0,[r0,#0]
        0x000012f8:    f0400001    @...    ORR      r0,r0,#1
        0x000012fc:    4901        .I      LDR      r1,[pc,#4] ; [0x1304] = 0x40001000
        0x000012fe:    6008        .`      STR      r0,[r1,#0]
        0x00001300:    4770        pG      BX       lr
    $d
        0x00001302:    0000        ..      DCW    0
        0x00001304:    40001000    ...@    DCD    1073745920
    $t
    i.SmartCamera_send_SYN
    SmartCamera_send_SYN
        0x00001308:    4803        .H      LDR      r0,[pc,#12] ; [0x1318] = 0x40001000
        0x0000130a:    6800        .h      LDR      r0,[r0,#0]
        0x0000130c:    f0400002    @...    ORR      r0,r0,#2
        0x00001310:    4901        .I      LDR      r1,[pc,#4] ; [0x1318] = 0x40001000
        0x00001312:    6008        .`      STR      r0,[r1,#0]
        0x00001314:    4770        pG      BX       lr
    $d
        0x00001316:    0000        ..      DCW    0
        0x00001318:    40001000    ...@    DCD    1073745920
    $t
    i.SysTickHandler
    SysTickHandler
        0x0000131c:    4770        pG      BX       lr
        0x0000131e:    0000        ..      MOVS     r0,r0
    i.SystemInit
    SystemInit
        0x00001320:    b51f        ..      PUSH     {r0-r4,lr}
        0x00001322:    480a        .H      LDR      r0,[pc,#40] ; [0x134c] = 0x2faf080
        0x00001324:    490a        .I      LDR      r1,[pc,#40] ; [0x1350] = 0x20000018
        0x00001326:    6008        .`      STR      r0,[r1,#0]
        0x00001328:    4608        .F      MOV      r0,r1
        0x0000132a:    6800        .h      LDR      r0,[r0,#0]
        0x0000132c:    f44f31e1    O..1    MOV      r1,#0x1c200
        0x00001330:    fbb0f4f1    ....    UDIV     r4,r0,r1
        0x00001334:    2001        .       MOVS     r0,#1
        0x00001336:    9000        ..      STR      r0,[sp,#0]
        0x00001338:    9001        ..      STR      r0,[sp,#4]
        0x0000133a:    9002        ..      STR      r0,[sp,#8]
        0x0000133c:    4603        .F      MOV      r3,r0
        0x0000133e:    4602        .F      MOV      r2,r0
        0x00001340:    4621        !F      MOV      r1,r4
        0x00001342:    9003        ..      STR      r0,[sp,#0xc]
        0x00001344:    0780        ..      LSLS     r0,r0,#30
        0x00001346:    f000fbdb    ....    BL       uart_init ; 0x1b00
        0x0000134a:    bd1f        ..      POP      {r0-r4,pc}
    $d
        0x0000134c:    02faf080    ....    DCD    50000000
        0x00001350:    20000018    ...     DCD    536870936
    $t
    i.UARTOVRHandler
    UARTOVRHandler
        0x00001354:    4770        pG      BX       lr
    i.UARTRXHandler
    UARTRXHandler
        0x00001356:    4770        pG      BX       lr
    i.UARTTXHandler
    UARTTXHandler
        0x00001358:    4770        pG      BX       lr
    i.UsageFaultHandler
    UsageFaultHandler
        0x0000135a:    4770        pG      BX       lr
    i._sys_exit
    _sys_exit
        0x0000135c:    bf00        ..      NOP      
        0x0000135e:    e7fe        ..      B        0x135e ; _sys_exit + 2
    i.delay
    delay
        0x00001360:    21ff        .!      MOVS     r1,#0xff
        0x00001362:    22ff        ."      MOVS     r2,#0xff
        0x00001364:    e00b        ..      B        0x137e ; delay + 30
        0x00001366:    e006        ..      B        0x1376 ; delay + 22
        0x00001368:    e001        ..      B        0x136e ; delay + 14
        0x0000136a:    1e53        S.      SUBS     r3,r2,#1
        0x0000136c:    b2da        ..      UXTB     r2,r3
        0x0000136e:    2a00        .*      CMP      r2,#0
        0x00001370:    dcfb        ..      BGT      0x136a ; delay + 10
        0x00001372:    1e4b        K.      SUBS     r3,r1,#1
        0x00001374:    b2d9        ..      UXTB     r1,r3
        0x00001376:    2900        .)      CMP      r1,#0
        0x00001378:    dcf6        ..      BGT      0x1368 ; delay + 8
        0x0000137a:    1e43        C.      SUBS     r3,r0,#1
        0x0000137c:    b2d8        ..      UXTB     r0,r3
        0x0000137e:    2800        .(      CMP      r0,#0
        0x00001380:    dcf1        ..      BGT      0x1366 ; delay + 6
        0x00001382:    4770        pG      BX       lr
    i.delay_ms
    delay_ms
        0x00001384:    b510        ..      PUSH     {r4,lr}
        0x00001386:    4604        .F      MOV      r4,r0
        0x00001388:    e003        ..      B        0x1392 ; delay_ms + 14
        0x0000138a:    20ff        .       MOVS     r0,#0xff
        0x0000138c:    f7ffffe8    ....    BL       delay ; 0x1360
        0x00001390:    1e64        d.      SUBS     r4,r4,#1
        0x00001392:    2c00        .,      CMP      r4,#0
        0x00001394:    d1f9        ..      BNE      0x138a ; delay_ms + 6
        0x00001396:    bd10        ..      POP      {r4,pc}
    i.ferror
    ferror
        0x00001398:    4601        .F      MOV      r1,r0
        0x0000139a:    f04f30ff    O..0    MOV      r0,#0xffffffff
        0x0000139e:    4770        pG      BX       lr
    i.fputc
    fputc
        0x000013a0:    b570        p.      PUSH     {r4-r6,lr}
        0x000013a2:    4604        .F      MOV      r4,r0
        0x000013a4:    460d        .F      MOV      r5,r1
        0x000013a6:    2c0a        .,      CMP      r4,#0xa
        0x000013a8:    d103        ..      BNE      0x13b2 ; fputc + 18
        0x000013aa:    210d        .!      MOVS     r1,#0xd
        0x000013ac:    0740        @.      LSLS     r0,r0,#29
        0x000013ae:    f000fb9d    ....    BL       uart_SendChar ; 0x1aec
        0x000013b2:    4621        !F      MOV      r1,r4
        0x000013b4:    f04f4080    O..@    MOV      r0,#0x40000000
        0x000013b8:    f000fb98    ....    BL       uart_SendChar ; 0x1aec
        0x000013bc:    4620         F      MOV      r0,r4
        0x000013be:    bd70        p.      POP      {r4-r6,pc}
    i.main
    main
        0x000013c0:    b508        ..      PUSH     {r3,lr}
        0x000013c2:    20ff        .       MOVS     r0,#0xff
        0x000013c4:    49fe        .I      LDR      r1,[pc,#1016] ; [0x17c0] = 0x2000000d
        0x000013c6:    7008        .p      STRB     r0,[r1,#0]
        0x000013c8:    2001        .       MOVS     r0,#1
        0x000013ca:    49fe        .I      LDR      r1,[pc,#1016] ; [0x17c4] = 0x2000000e
        0x000013cc:    7008        .p      STRB     r0,[r1,#0]
        0x000013ce:    2000        .       MOVS     r0,#0
        0x000013d0:    49fd        .I      LDR      r1,[pc,#1012] ; [0x17c8] = 0x2000000c
        0x000013d2:    7008        .p      STRB     r0,[r1,#0]
        0x000013d4:    49fd        .I      LDR      r1,[pc,#1012] ; [0x17cc] = 0x20000000
        0x000013d6:    7148        Hq      STRB     r0,[r1,#5]
        0x000013d8:    f44f60a0    O..`    MOV      r0,#0x500
        0x000013dc:    f7ffff46    ..F.    BL       NVIC_PriorityGroupConfig ; 0x126c
        0x000013e0:    f7feff50    ..P.    BL       EXTIX_Init ; 0x284
        0x000013e4:    f7fff8f6    ....    BL       GPIO_init ; 0x5d4
        0x000013e8:    f7fffe22    ..".    BL       Lcd_Init ; 0x1030
        0x000013ec:    48f8        .H      LDR      r0,[pc,#992] ; [0x17d0] = 0xfcfcfc
        0x000013ee:    f7fff95c    ..\.    BL       LCD_Clear ; 0x6aa
        0x000013f2:    2300        .#      MOVS     r3,#0
        0x000013f4:    461a        .F      MOV      r2,r3
        0x000013f6:    213c        <!      MOVS     r1,#0x3c
        0x000013f8:    2019        .       MOVS     r0,#0x19
        0x000013fa:    f7fffa3d    ..=.    BL       LCD_ShowPicture ; 0x878
        0x000013fe:    f44f007c    O.|.    MOV      r0,#0xfc0000
        0x00001402:    f44f739b    O..s    MOV      r3,#0x136
        0x00001406:    f44f72eb    O..r    MOV      r2,#0x1d6
        0x0000140a:    213c        <!      MOVS     r1,#0x3c
        0x0000140c:    9000        ..      STR      r0,[sp,#0]
        0x0000140e:    f44f708c    O..p    MOV      r0,#0x118
        0x00001412:    f7fff9c5    ....    BL       LCD_DrawRectangle ; 0x7a0
        0x00001416:    2000        .       MOVS     r0,#0
        0x00001418:    2318        .#      MOVS     r3,#0x18
        0x0000141a:    4602        .F      MOV      r2,r0
        0x0000141c:    2146        F!      MOVS     r1,#0x46
        0x0000141e:    9000        ..      STR      r0,[sp,#0]
        0x00001420:    f2401023    @.#.    MOV      r0,#0x123
        0x00001424:    f7fff9e2    ....    BL       LCD_ShowChinese32x32 ; 0x7ec
        0x00001428:    f7fffbca    ....    BL       LCD_show_item ; 0xbc0
        0x0000142c:    f7ffff50    ..P.    BL       SmartCamera_init ; 0x12d0
        0x00001430:    f7ffff60    ..`.    BL       SmartCamera_reset ; 0x12f4
        0x00001434:    200a        .       MOVS     r0,#0xa
        0x00001436:    f7ffffa5    ....    BL       delay_ms ; 0x1384
        0x0000143a:    e34d        M.      B        0x1ad8 ; main + 1816
        0x0000143c:    48e2        .H      LDR      r0,[pc,#904] ; [0x17c8] = 0x2000000c
        0x0000143e:    7800        .x      LDRB     r0,[r0,#0]
        0x00001440:    b9a8        ..      CBNZ     r0,0x146e ; main + 174
        0x00001442:    1da1        ..      ADDS     r1,r4,#6
        0x00001444:    b2c8        ..      UXTB     r0,r1
        0x00001446:    2100        .!      MOVS     r1,#0
        0x00001448:    f7fff8df    ....    BL       GPIO_output ; 0x60a
        0x0000144c:    20c8        .       MOVS     r0,#0xc8
        0x0000144e:    f7ffff99    ....    BL       delay_ms ; 0x1384
        0x00001452:    1da1        ..      ADDS     r1,r4,#6
        0x00001454:    b2c8        ..      UXTB     r0,r1
        0x00001456:    2101        .!      MOVS     r1,#1
        0x00001458:    f7fff8d7    ....    BL       GPIO_output ; 0x60a
        0x0000145c:    20c8        .       MOVS     r0,#0xc8
        0x0000145e:    f7ffff91    ....    BL       delay_ms ; 0x1384
        0x00001462:    1c60        `.      ADDS     r0,r4,#1
        0x00001464:    b2c4        ..      UXTB     r4,r0
        0x00001466:    2c06        .,      CMP      r4,#6
        0x00001468:    db37        7.      BLT      0x14da ; main + 282
        0x0000146a:    2400        .$      MOVS     r4,#0
        0x0000146c:    e035        5.      B        0x14da ; main + 282
        0x0000146e:    48d6        .H      LDR      r0,[pc,#856] ; [0x17c8] = 0x2000000c
        0x00001470:    7800        .x      LDRB     r0,[r0,#0]
        0x00001472:    2801        .(      CMP      r0,#1
        0x00001474:    d115        ..      BNE      0x14a2 ; main + 226
        0x00001476:    1da1        ..      ADDS     r1,r4,#6
        0x00001478:    b2c8        ..      UXTB     r0,r1
        0x0000147a:    2100        .!      MOVS     r1,#0
        0x0000147c:    f7fff8c5    ....    BL       GPIO_output ; 0x60a
        0x00001480:    20c8        .       MOVS     r0,#0xc8
        0x00001482:    f7ffff7f    ....    BL       delay_ms ; 0x1384
        0x00001486:    1da1        ..      ADDS     r1,r4,#6
        0x00001488:    b2c8        ..      UXTB     r0,r1
        0x0000148a:    2101        .!      MOVS     r1,#1
        0x0000148c:    f7fff8bd    ....    BL       GPIO_output ; 0x60a
        0x00001490:    20c8        .       MOVS     r0,#0xc8
        0x00001492:    f7ffff77    ..w.    BL       delay_ms ; 0x1384
        0x00001496:    1e60        `.      SUBS     r0,r4,#1
        0x00001498:    b2c4        ..      UXTB     r4,r0
        0x0000149a:    2c00        .,      CMP      r4,#0
        0x0000149c:    dc1d        ..      BGT      0x14da ; main + 282
        0x0000149e:    2405        .$      MOVS     r4,#5
        0x000014a0:    e01b        ..      B        0x14da ; main + 282
        0x000014a2:    48c9        .H      LDR      r0,[pc,#804] ; [0x17c8] = 0x2000000c
        0x000014a4:    7800        .x      LDRB     r0,[r0,#0]
        0x000014a6:    2802        .(      CMP      r0,#2
        0x000014a8:    d117        ..      BNE      0x14da ; main + 282
        0x000014aa:    f04f40a0    O..@    MOV      r0,#0x50000000
        0x000014ae:    6840        @h      LDR      r0,[r0,#4]
        0x000014b0:    f4206078     .x`    BIC      r0,r0,#0xf80
        0x000014b4:    f04f41a0    O..A    MOV      r1,#0x50000000
        0x000014b8:    6048        H`      STR      r0,[r1,#4]
        0x000014ba:    f44f70c8    O..p    MOV      r0,#0x190
        0x000014be:    f7ffff61    ..a.    BL       delay_ms ; 0x1384
        0x000014c2:    f04f40a0    O..@    MOV      r0,#0x50000000
        0x000014c6:    6840        @h      LDR      r0,[r0,#4]
        0x000014c8:    f4406078    @.x`    ORR      r0,r0,#0xf80
        0x000014cc:    f04f41a0    O..A    MOV      r1,#0x50000000
        0x000014d0:    6048        H`      STR      r0,[r1,#4]
        0x000014d2:    f44f70c8    O..p    MOV      r0,#0x190
        0x000014d6:    f7ffff55    ..U.    BL       delay_ms ; 0x1384
        0x000014da:    48b9        .H      LDR      r0,[pc,#740] ; [0x17c0] = 0x2000000d
        0x000014dc:    7800        .x      LDRB     r0,[r0,#0]
        0x000014de:    2803        .(      CMP      r0,#3
        0x000014e0:    d17e        ~.      BNE      0x15e0 ; main + 544
        0x000014e2:    48bc        .H      LDR      r0,[pc,#752] ; [0x17d4] = 0x40001000
        0x000014e4:    6900        .i      LDR      r0,[r0,#0x10]
        0x000014e6:    b2c5        ..      UXTB     r5,r0
        0x000014e8:    b93d        =.      CBNZ     r5,0x14fa ; main + 314
        0x000014ea:    23fc        .#      MOVS     r3,#0xfc
        0x000014ec:    a2ba        ..      ADR      r2,{pc}+0x2ec ; 0x17d8
        0x000014ee:    2178        x!      MOVS     r1,#0x78
        0x000014f0:    f44f70c1    O..p    MOV      r0,#0x182
        0x000014f4:    f7fffa2e    ....    BL       LCD_Show_ASCII ; 0x954
        0x000014f8:    e026        &.      B        0x1548 ; main + 392
        0x000014fa:    2d02        .-      CMP      r5,#2
        0x000014fc:    d107        ..      BNE      0x150e ; main + 334
        0x000014fe:    23fc        .#      MOVS     r3,#0xfc
        0x00001500:    a2b8        ..      ADR      r2,{pc}+0x2e4 ; 0x17e4
        0x00001502:    2178        x!      MOVS     r1,#0x78
        0x00001504:    f44f70c1    O..p    MOV      r0,#0x182
        0x00001508:    f7fffa24    ..$.    BL       LCD_Show_ASCII ; 0x954
        0x0000150c:    e01c        ..      B        0x1548 ; main + 392
        0x0000150e:    2d04        .-      CMP      r5,#4
        0x00001510:    d107        ..      BNE      0x1522 ; main + 354
        0x00001512:    23fc        .#      MOVS     r3,#0xfc
        0x00001514:    a2b6        ..      ADR      r2,{pc}+0x2dc ; 0x17f0
        0x00001516:    2178        x!      MOVS     r1,#0x78
        0x00001518:    f44f70c1    O..p    MOV      r0,#0x182
        0x0000151c:    f7fffa1a    ....    BL       LCD_Show_ASCII ; 0x954
        0x00001520:    e012        ..      B        0x1548 ; main + 392
        0x00001522:    2d05        .-      CMP      r5,#5
        0x00001524:    d107        ..      BNE      0x1536 ; main + 374
        0x00001526:    23fc        .#      MOVS     r3,#0xfc
        0x00001528:    a2b4        ..      ADR      r2,{pc}+0x2d4 ; 0x17fc
        0x0000152a:    2178        x!      MOVS     r1,#0x78
        0x0000152c:    f44f70c1    O..p    MOV      r0,#0x182
        0x00001530:    f7fffa10    ....    BL       LCD_Show_ASCII ; 0x954
        0x00001534:    e008        ..      B        0x1548 ; main + 392
        0x00001536:    2d03        .-      CMP      r5,#3
        0x00001538:    d106        ..      BNE      0x1548 ; main + 392
        0x0000153a:    23fc        .#      MOVS     r3,#0xfc
        0x0000153c:    a2af        ..      ADR      r2,{pc}+0x2c0 ; 0x17fc
        0x0000153e:    2178        x!      MOVS     r1,#0x78
        0x00001540:    f44f70c1    O..p    MOV      r0,#0x182
        0x00001544:    f7fffa06    ....    BL       LCD_Show_ASCII ; 0x954
        0x00001548:    48a2        .H      LDR      r0,[pc,#648] ; [0x17d4] = 0x40001000
        0x0000154a:    6980        .i      LDR      r0,[r0,#0x18]
        0x0000154c:    f3c02015    ...     UBFX     r0,r0,#8,#22
        0x00001550:    49ad        .I      LDR      r1,[pc,#692] ; [0x1808] = 0x20000008
        0x00001552:    6008        .`      STR      r0,[r1,#0]
        0x00001554:    4608        .F      MOV      r0,r1
        0x00001556:    6800        .h      LDR      r0,[r0,#0]
        0x00001558:    f2427110    B..q    MOV      r1,#0x2710
        0x0000155c:    fbb0f0f1    ....    UDIV     r0,r0,r1
        0x00001560:    3030        00      ADDS     r0,r0,#0x30
        0x00001562:    499a        .I      LDR      r1,[pc,#616] ; [0x17cc] = 0x20000000
        0x00001564:    7008        .p      STRB     r0,[r1,#0]
        0x00001566:    48a8        .H      LDR      r0,[pc,#672] ; [0x1808] = 0x20000008
        0x00001568:    6800        .h      LDR      r0,[r0,#0]
        0x0000156a:    f2427110    B..q    MOV      r1,#0x2710
        0x0000156e:    fbb0f2f1    ....    UDIV     r2,r0,r1
        0x00001572:    fb010012    ....    MLS      r0,r1,r2,r0
        0x00001576:    f44f717a    O.zq    MOV      r1,#0x3e8
        0x0000157a:    fbb0f0f1    ....    UDIV     r0,r0,r1
        0x0000157e:    3030        00      ADDS     r0,r0,#0x30
        0x00001580:    4992        .I      LDR      r1,[pc,#584] ; [0x17cc] = 0x20000000
        0x00001582:    7048        Hp      STRB     r0,[r1,#1]
        0x00001584:    48a0        .H      LDR      r0,[pc,#640] ; [0x1808] = 0x20000008
        0x00001586:    6800        .h      LDR      r0,[r0,#0]
        0x00001588:    f2427110    B..q    MOV      r1,#0x2710
        0x0000158c:    fbb0f2f1    ....    UDIV     r2,r0,r1
        0x00001590:    fb010012    ....    MLS      r0,r1,r2,r0
        0x00001594:    f44f717a    O.zq    MOV      r1,#0x3e8
        0x00001598:    fbb0f2f1    ....    UDIV     r2,r0,r1
        0x0000159c:    fb010012    ....    MLS      r0,r1,r2,r0
        0x000015a0:    2164        d!      MOVS     r1,#0x64
        0x000015a2:    fbb0f0f1    ....    UDIV     r0,r0,r1
        0x000015a6:    3030        00      ADDS     r0,r0,#0x30
        0x000015a8:    4988        .I      LDR      r1,[pc,#544] ; [0x17cc] = 0x20000000
        0x000015aa:    7088        .p      STRB     r0,[r1,#2]
        0x000015ac:    4896        .H      LDR      r0,[pc,#600] ; [0x1808] = 0x20000008
        0x000015ae:    6800        .h      LDR      r0,[r0,#0]
        0x000015b0:    f2427110    B..q    MOV      r1,#0x2710
        0x000015b4:    fbb0f2f1    ....    UDIV     r2,r0,r1
        0x000015b8:    fb010012    ....    MLS      r0,r1,r2,r0
        0x000015bc:    f44f717a    O.zq    MOV      r1,#0x3e8
        0x000015c0:    fbb0f2f1    ....    UDIV     r2,r0,r1
        0x000015c4:    fb010012    ....    MLS      r0,r1,r2,r0
        0x000015c8:    2164        d!      MOVS     r1,#0x64
        0x000015ca:    fbb0f2f1    ....    UDIV     r2,r0,r1
        0x000015ce:    fb010012    ....    MLS      r0,r1,r2,r0
        0x000015d2:    210a        .!      MOVS     r1,#0xa
        0x000015d4:    fbb0f0f1    ....    UDIV     r0,r0,r1
        0x000015d8:    3030        00      ADDS     r0,r0,#0x30
        0x000015da:    497c        |I      LDR      r1,[pc,#496] ; [0x17cc] = 0x20000000
        0x000015dc:    70c8        .p      STRB     r0,[r1,#3]
        0x000015de:    e000        ..      B        0x15e2 ; main + 546
        0x000015e0:    e271        q.      B        0x1ac6 ; main + 1798
        0x000015e2:    4889        .H      LDR      r0,[pc,#548] ; [0x1808] = 0x20000008
        0x000015e4:    6800        .h      LDR      r0,[r0,#0]
        0x000015e6:    f2427110    B..q    MOV      r1,#0x2710
        0x000015ea:    fbb0f2f1    ....    UDIV     r2,r0,r1
        0x000015ee:    fb010012    ....    MLS      r0,r1,r2,r0
        0x000015f2:    f44f717a    O.zq    MOV      r1,#0x3e8
        0x000015f6:    fbb0f2f1    ....    UDIV     r2,r0,r1
        0x000015fa:    fb010012    ....    MLS      r0,r1,r2,r0
        0x000015fe:    2164        d!      MOVS     r1,#0x64
        0x00001600:    fbb0f2f1    ....    UDIV     r2,r0,r1
        0x00001604:    fb010012    ....    MLS      r0,r1,r2,r0
        0x00001608:    210a        .!      MOVS     r1,#0xa
        0x0000160a:    fbb0f2f1    ....    UDIV     r2,r0,r1
        0x0000160e:    fb010012    ....    MLS      r0,r1,r2,r0
        0x00001612:    3030        00      ADDS     r0,r0,#0x30
        0x00001614:    496d        mI      LDR      r1,[pc,#436] ; [0x17cc] = 0x20000000
        0x00001616:    7108        .q      STRB     r0,[r1,#4]
        0x00001618:    2000        .       MOVS     r0,#0
        0x0000161a:    7148        Hq      STRB     r0,[r1,#5]
        0x0000161c:    23fc        .#      MOVS     r3,#0xfc
        0x0000161e:    460a        .F      MOV      r2,r1
        0x00001620:    2190        .!      MOVS     r1,#0x90
        0x00001622:    f44f70c1    O..p    MOV      r0,#0x182
        0x00001626:    f7fff995    ....    BL       LCD_Show_ASCII ; 0x954
        0x0000162a:    486a        jH      LDR      r0,[pc,#424] ; [0x17d4] = 0x40001000
        0x0000162c:    69c0        .i      LDR      r0,[r0,#0x1c]
        0x0000162e:    f3c010d5    ....    UBFX     r0,r0,#7,#22
        0x00001632:    4975        uI      LDR      r1,[pc,#468] ; [0x1808] = 0x20000008
        0x00001634:    6008        .`      STR      r0,[r1,#0]
        0x00001636:    4608        .F      MOV      r0,r1
        0x00001638:    6800        .h      LDR      r0,[r0,#0]
        0x0000163a:    f2427110    B..q    MOV      r1,#0x2710
        0x0000163e:    fbb0f0f1    ....    UDIV     r0,r0,r1
        0x00001642:    3030        00      ADDS     r0,r0,#0x30
        0x00001644:    4961        aI      LDR      r1,[pc,#388] ; [0x17cc] = 0x20000000
        0x00001646:    7008        .p      STRB     r0,[r1,#0]
        0x00001648:    486f        oH      LDR      r0,[pc,#444] ; [0x1808] = 0x20000008
        0x0000164a:    6800        .h      LDR      r0,[r0,#0]
        0x0000164c:    f2427110    B..q    MOV      r1,#0x2710
        0x00001650:    fbb0f2f1    ....    UDIV     r2,r0,r1
        0x00001654:    fb010012    ....    MLS      r0,r1,r2,r0
        0x00001658:    f44f717a    O.zq    MOV      r1,#0x3e8
        0x0000165c:    fbb0f0f1    ....    UDIV     r0,r0,r1
        0x00001660:    3030        00      ADDS     r0,r0,#0x30
        0x00001662:    495a        ZI      LDR      r1,[pc,#360] ; [0x17cc] = 0x20000000
        0x00001664:    7048        Hp      STRB     r0,[r1,#1]
        0x00001666:    4868        hH      LDR      r0,[pc,#416] ; [0x1808] = 0x20000008
        0x00001668:    6800        .h      LDR      r0,[r0,#0]
        0x0000166a:    f2427110    B..q    MOV      r1,#0x2710
        0x0000166e:    fbb0f2f1    ....    UDIV     r2,r0,r1
        0x00001672:    fb010012    ....    MLS      r0,r1,r2,r0
        0x00001676:    f44f717a    O.zq    MOV      r1,#0x3e8
        0x0000167a:    fbb0f2f1    ....    UDIV     r2,r0,r1
        0x0000167e:    fb010012    ....    MLS      r0,r1,r2,r0
        0x00001682:    2164        d!      MOVS     r1,#0x64
        0x00001684:    fbb0f0f1    ....    UDIV     r0,r0,r1
        0x00001688:    3030        00      ADDS     r0,r0,#0x30
        0x0000168a:    4950        PI      LDR      r1,[pc,#320] ; [0x17cc] = 0x20000000
        0x0000168c:    7088        .p      STRB     r0,[r1,#2]
        0x0000168e:    485e        ^H      LDR      r0,[pc,#376] ; [0x1808] = 0x20000008
        0x00001690:    6800        .h      LDR      r0,[r0,#0]
        0x00001692:    f2427110    B..q    MOV      r1,#0x2710
        0x00001696:    fbb0f2f1    ....    UDIV     r2,r0,r1
        0x0000169a:    fb010012    ....    MLS      r0,r1,r2,r0
        0x0000169e:    f44f717a    O.zq    MOV      r1,#0x3e8
        0x000016a2:    fbb0f2f1    ....    UDIV     r2,r0,r1
        0x000016a6:    fb010012    ....    MLS      r0,r1,r2,r0
        0x000016aa:    2164        d!      MOVS     r1,#0x64
        0x000016ac:    fbb0f2f1    ....    UDIV     r2,r0,r1
        0x000016b0:    fb010012    ....    MLS      r0,r1,r2,r0
        0x000016b4:    210a        .!      MOVS     r1,#0xa
        0x000016b6:    fbb0f0f1    ....    UDIV     r0,r0,r1
        0x000016ba:    3030        00      ADDS     r0,r0,#0x30
        0x000016bc:    4943        CI      LDR      r1,[pc,#268] ; [0x17cc] = 0x20000000
        0x000016be:    70c8        .p      STRB     r0,[r1,#3]
        0x000016c0:    4851        QH      LDR      r0,[pc,#324] ; [0x1808] = 0x20000008
        0x000016c2:    6800        .h      LDR      r0,[r0,#0]
        0x000016c4:    f2427110    B..q    MOV      r1,#0x2710
        0x000016c8:    fbb0f2f1    ....    UDIV     r2,r0,r1
        0x000016cc:    fb010012    ....    MLS      r0,r1,r2,r0
        0x000016d0:    f44f717a    O.zq    MOV      r1,#0x3e8
        0x000016d4:    fbb0f2f1    ....    UDIV     r2,r0,r1
        0x000016d8:    fb010012    ....    MLS      r0,r1,r2,r0
        0x000016dc:    2164        d!      MOVS     r1,#0x64
        0x000016de:    fbb0f2f1    ....    UDIV     r2,r0,r1
        0x000016e2:    fb010012    ....    MLS      r0,r1,r2,r0
        0x000016e6:    210a        .!      MOVS     r1,#0xa
        0x000016e8:    fbb0f2f1    ....    UDIV     r2,r0,r1
        0x000016ec:    fb010012    ....    MLS      r0,r1,r2,r0
        0x000016f0:    3030        00      ADDS     r0,r0,#0x30
        0x000016f2:    4936        6I      LDR      r1,[pc,#216] ; [0x17cc] = 0x20000000
        0x000016f4:    7108        .q      STRB     r0,[r1,#4]
        0x000016f6:    2000        .       MOVS     r0,#0
        0x000016f8:    7148        Hq      STRB     r0,[r1,#5]
        0x000016fa:    23fc        .#      MOVS     r3,#0xfc
        0x000016fc:    460a        .F      MOV      r2,r1
        0x000016fe:    21a8        .!      MOVS     r1,#0xa8
        0x00001700:    f44f70c1    O..p    MOV      r0,#0x182
        0x00001704:    f7fff926    ..&.    BL       LCD_Show_ASCII ; 0x954
        0x00001708:    4832        2H      LDR      r0,[pc,#200] ; [0x17d4] = 0x40001000
        0x0000170a:    6a00        .j      LDR      r0,[r0,#0x20]
        0x0000170c:    b2c0        ..      UXTB     r0,r0
        0x0000170e:    493e        >I      LDR      r1,[pc,#248] ; [0x1808] = 0x20000008
        0x00001710:    6008        .`      STR      r0,[r1,#0]
        0x00001712:    4608        .F      MOV      r0,r1
        0x00001714:    6800        .h      LDR      r0,[r0,#0]
        0x00001716:    2164        d!      MOVS     r1,#0x64
        0x00001718:    fbb0f0f1    ....    UDIV     r0,r0,r1
        0x0000171c:    3030        00      ADDS     r0,r0,#0x30
        0x0000171e:    492b        +I      LDR      r1,[pc,#172] ; [0x17cc] = 0x20000000
        0x00001720:    7008        .p      STRB     r0,[r1,#0]
        0x00001722:    4839        9H      LDR      r0,[pc,#228] ; [0x1808] = 0x20000008
        0x00001724:    6800        .h      LDR      r0,[r0,#0]
        0x00001726:    2164        d!      MOVS     r1,#0x64
        0x00001728:    fbb0f2f1    ....    UDIV     r2,r0,r1
        0x0000172c:    fb010012    ....    MLS      r0,r1,r2,r0
        0x00001730:    210a        .!      MOVS     r1,#0xa
        0x00001732:    fbb0f0f1    ....    UDIV     r0,r0,r1
        0x00001736:    3030        00      ADDS     r0,r0,#0x30
        0x00001738:    4924        $I      LDR      r1,[pc,#144] ; [0x17cc] = 0x20000000
        0x0000173a:    7048        Hp      STRB     r0,[r1,#1]
        0x0000173c:    4832        2H      LDR      r0,[pc,#200] ; [0x1808] = 0x20000008
        0x0000173e:    6800        .h      LDR      r0,[r0,#0]
        0x00001740:    2164        d!      MOVS     r1,#0x64
        0x00001742:    fbb0f2f1    ....    UDIV     r2,r0,r1
        0x00001746:    fb010012    ....    MLS      r0,r1,r2,r0
        0x0000174a:    210a        .!      MOVS     r1,#0xa
        0x0000174c:    fbb0f2f1    ....    UDIV     r2,r0,r1
        0x00001750:    fb010012    ....    MLS      r0,r1,r2,r0
        0x00001754:    3030        00      ADDS     r0,r0,#0x30
        0x00001756:    491d        .I      LDR      r1,[pc,#116] ; [0x17cc] = 0x20000000
        0x00001758:    7088        .p      STRB     r0,[r1,#2]
        0x0000175a:    2000        .       MOVS     r0,#0
        0x0000175c:    70c8        .p      STRB     r0,[r1,#3]
        0x0000175e:    23fc        .#      MOVS     r3,#0xfc
        0x00001760:    460a        .F      MOV      r2,r1
        0x00001762:    21c0        .!      MOVS     r1,#0xc0
        0x00001764:    f44f70c1    O..p    MOV      r0,#0x182
        0x00001768:    f7fff8f4    ....    BL       LCD_Show_ASCII ; 0x954
        0x0000176c:    4819        .H      LDR      r0,[pc,#100] ; [0x17d4] = 0x40001000
        0x0000176e:    6a00        .j      LDR      r0,[r0,#0x20]
        0x00001770:    f3c02007    ...     UBFX     r0,r0,#8,#8
        0x00001774:    0040        @.      LSLS     r0,r0,#1
        0x00001776:    4924        $I      LDR      r1,[pc,#144] ; [0x1808] = 0x20000008
        0x00001778:    6008        .`      STR      r0,[r1,#0]
        0x0000177a:    4608        .F      MOV      r0,r1
        0x0000177c:    6800        .h      LDR      r0,[r0,#0]
        0x0000177e:    2164        d!      MOVS     r1,#0x64
        0x00001780:    fbb0f0f1    ....    UDIV     r0,r0,r1
        0x00001784:    3030        00      ADDS     r0,r0,#0x30
        0x00001786:    4911        .I      LDR      r1,[pc,#68] ; [0x17cc] = 0x20000000
        0x00001788:    7008        .p      STRB     r0,[r1,#0]
        0x0000178a:    481f        .H      LDR      r0,[pc,#124] ; [0x1808] = 0x20000008
        0x0000178c:    6800        .h      LDR      r0,[r0,#0]
        0x0000178e:    2164        d!      MOVS     r1,#0x64
        0x00001790:    fbb0f2f1    ....    UDIV     r2,r0,r1
        0x00001794:    fb010012    ....    MLS      r0,r1,r2,r0
        0x00001798:    210a        .!      MOVS     r1,#0xa
        0x0000179a:    fbb0f0f1    ....    UDIV     r0,r0,r1
        0x0000179e:    3030        00      ADDS     r0,r0,#0x30
        0x000017a0:    490a        .I      LDR      r1,[pc,#40] ; [0x17cc] = 0x20000000
        0x000017a2:    7048        Hp      STRB     r0,[r1,#1]
        0x000017a4:    4818        .H      LDR      r0,[pc,#96] ; [0x1808] = 0x20000008
        0x000017a6:    6800        .h      LDR      r0,[r0,#0]
        0x000017a8:    2164        d!      MOVS     r1,#0x64
        0x000017aa:    fbb0f2f1    ....    UDIV     r2,r0,r1
        0x000017ae:    fb010012    ....    MLS      r0,r1,r2,r0
        0x000017b2:    210a        .!      MOVS     r1,#0xa
        0x000017b4:    fbb0f2f1    ....    UDIV     r2,r0,r1
        0x000017b8:    fb010012    ....    MLS      r0,r1,r2,r0
        0x000017bc:    3030        00      ADDS     r0,r0,#0x30
        0x000017be:    e025        %.      B        0x180c ; main + 1100
    $d
        0x000017c0:    2000000d    ...     DCD    536870925
        0x000017c4:    2000000e    ...     DCD    536870926
        0x000017c8:    2000000c    ...     DCD    536870924
        0x000017cc:    20000000    ...     DCD    536870912
        0x000017d0:    00fcfcfc    ....    DCD    16579836
        0x000017d4:    40001000    ...@    DCD    1073745920
        0x000017d8:    454c4449    IDLE    DCD    1162626121
        0x000017dc:    20202020            DCD    538976288
        0x000017e0:    00000000    ....    DCD    0
        0x000017e4:    646e6553    Send    DCD    1684956499
        0x000017e8:    4e595320     SYN    DCD    1314476832
        0x000017ec:    00000000    ....    DCD    0
        0x000017f0:    646e6553    Send    DCD    1684956499
        0x000017f4:    4b434120     ACK    DCD    1262698784
        0x000017f8:    00000000    ....    DCD    0
        0x000017fc:    65636552    Rece    DCD    1701012818
        0x00001800:    20657669    ive     DCD    543520361
        0x00001804:    00000000    ....    DCD    0
        0x00001808:    20000008    ...     DCD    536870920
    $t
        0x0000180c:    49b3        .I      LDR      r1,[pc,#716] ; [0x1adc] = 0x20000000
        0x0000180e:    7088        .p      STRB     r0,[r1,#2]
        0x00001810:    2000        .       MOVS     r0,#0
        0x00001812:    70c8        .p      STRB     r0,[r1,#3]
        0x00001814:    23fc        .#      MOVS     r3,#0xfc
        0x00001816:    460a        .F      MOV      r2,r1
        0x00001818:    21d8        .!      MOVS     r1,#0xd8
        0x0000181a:    f44f70c1    O..p    MOV      r0,#0x182
        0x0000181e:    f7fff899    ....    BL       LCD_Show_ASCII ; 0x954
        0x00001822:    48af        .H      LDR      r0,[pc,#700] ; [0x1ae0] = 0x40001000
        0x00001824:    6a40        @j      LDR      r0,[r0,#0x24]
        0x00001826:    b280        ..      UXTH     r0,r0
        0x00001828:    49ae        .I      LDR      r1,[pc,#696] ; [0x1ae4] = 0x20000008
        0x0000182a:    6008        .`      STR      r0,[r1,#0]
        0x0000182c:    4608        .F      MOV      r0,r1
        0x0000182e:    6800        .h      LDR      r0,[r0,#0]
        0x00001830:    f2427110    B..q    MOV      r1,#0x2710
        0x00001834:    fbb0f0f1    ....    UDIV     r0,r0,r1
        0x00001838:    3030        00      ADDS     r0,r0,#0x30
        0x0000183a:    49a8        .I      LDR      r1,[pc,#672] ; [0x1adc] = 0x20000000
        0x0000183c:    7008        .p      STRB     r0,[r1,#0]
        0x0000183e:    48a9        .H      LDR      r0,[pc,#676] ; [0x1ae4] = 0x20000008
        0x00001840:    6800        .h      LDR      r0,[r0,#0]
        0x00001842:    f2427110    B..q    MOV      r1,#0x2710
        0x00001846:    fbb0f2f1    ....    UDIV     r2,r0,r1
        0x0000184a:    fb010012    ....    MLS      r0,r1,r2,r0
        0x0000184e:    f44f717a    O.zq    MOV      r1,#0x3e8
        0x00001852:    fbb0f0f1    ....    UDIV     r0,r0,r1
        0x00001856:    3030        00      ADDS     r0,r0,#0x30
        0x00001858:    49a0        .I      LDR      r1,[pc,#640] ; [0x1adc] = 0x20000000
        0x0000185a:    7048        Hp      STRB     r0,[r1,#1]
        0x0000185c:    48a1        .H      LDR      r0,[pc,#644] ; [0x1ae4] = 0x20000008
        0x0000185e:    6800        .h      LDR      r0,[r0,#0]
        0x00001860:    f2427110    B..q    MOV      r1,#0x2710
        0x00001864:    fbb0f2f1    ....    UDIV     r2,r0,r1
        0x00001868:    fb010012    ....    MLS      r0,r1,r2,r0
        0x0000186c:    f44f717a    O.zq    MOV      r1,#0x3e8
        0x00001870:    fbb0f2f1    ....    UDIV     r2,r0,r1
        0x00001874:    fb010012    ....    MLS      r0,r1,r2,r0
        0x00001878:    2164        d!      MOVS     r1,#0x64
        0x0000187a:    fbb0f0f1    ....    UDIV     r0,r0,r1
        0x0000187e:    3030        00      ADDS     r0,r0,#0x30
        0x00001880:    4996        .I      LDR      r1,[pc,#600] ; [0x1adc] = 0x20000000
        0x00001882:    7088        .p      STRB     r0,[r1,#2]
        0x00001884:    4897        .H      LDR      r0,[pc,#604] ; [0x1ae4] = 0x20000008
        0x00001886:    6800        .h      LDR      r0,[r0,#0]
        0x00001888:    f2427110    B..q    MOV      r1,#0x2710
        0x0000188c:    fbb0f2f1    ....    UDIV     r2,r0,r1
        0x00001890:    fb010012    ....    MLS      r0,r1,r2,r0
        0x00001894:    f44f717a    O.zq    MOV      r1,#0x3e8
        0x00001898:    fbb0f2f1    ....    UDIV     r2,r0,r1
        0x0000189c:    fb010012    ....    MLS      r0,r1,r2,r0
        0x000018a0:    2164        d!      MOVS     r1,#0x64
        0x000018a2:    fbb0f2f1    ....    UDIV     r2,r0,r1
        0x000018a6:    fb010012    ....    MLS      r0,r1,r2,r0
        0x000018aa:    210a        .!      MOVS     r1,#0xa
        0x000018ac:    fbb0f0f1    ....    UDIV     r0,r0,r1
        0x000018b0:    3030        00      ADDS     r0,r0,#0x30
        0x000018b2:    498a        .I      LDR      r1,[pc,#552] ; [0x1adc] = 0x20000000
        0x000018b4:    70c8        .p      STRB     r0,[r1,#3]
        0x000018b6:    488b        .H      LDR      r0,[pc,#556] ; [0x1ae4] = 0x20000008
        0x000018b8:    6800        .h      LDR      r0,[r0,#0]
        0x000018ba:    f2427110    B..q    MOV      r1,#0x2710
        0x000018be:    fbb0f2f1    ....    UDIV     r2,r0,r1
        0x000018c2:    fb010012    ....    MLS      r0,r1,r2,r0
        0x000018c6:    f44f717a    O.zq    MOV      r1,#0x3e8
        0x000018ca:    fbb0f2f1    ....    UDIV     r2,r0,r1
        0x000018ce:    fb010012    ....    MLS      r0,r1,r2,r0
        0x000018d2:    2164        d!      MOVS     r1,#0x64
        0x000018d4:    fbb0f2f1    ....    UDIV     r2,r0,r1
        0x000018d8:    fb010012    ....    MLS      r0,r1,r2,r0
        0x000018dc:    210a        .!      MOVS     r1,#0xa
        0x000018de:    fbb0f2f1    ....    UDIV     r2,r0,r1
        0x000018e2:    fb010012    ....    MLS      r0,r1,r2,r0
        0x000018e6:    3030        00      ADDS     r0,r0,#0x30
        0x000018e8:    497c        |I      LDR      r1,[pc,#496] ; [0x1adc] = 0x20000000
        0x000018ea:    7108        .q      STRB     r0,[r1,#4]
        0x000018ec:    2000        .       MOVS     r0,#0
        0x000018ee:    7148        Hq      STRB     r0,[r1,#5]
        0x000018f0:    23fc        .#      MOVS     r3,#0xfc
        0x000018f2:    460a        .F      MOV      r2,r1
        0x000018f4:    21f0        .!      MOVS     r1,#0xf0
        0x000018f6:    f44f70c1    O..p    MOV      r0,#0x182
        0x000018fa:    f7fff82b    ..+.    BL       LCD_Show_ASCII ; 0x954
        0x000018fe:    4878        xH      LDR      r0,[pc,#480] ; [0x1ae0] = 0x40001000
        0x00001900:    6a40        @j      LDR      r0,[r0,#0x24]
        0x00001902:    f64f71ff    O..q    MOV      r1,#0xffff
        0x00001906:    ea014010    ...@    AND      r0,r1,r0,LSR #16
        0x0000190a:    4976        vI      LDR      r1,[pc,#472] ; [0x1ae4] = 0x20000008
        0x0000190c:    6008        .`      STR      r0,[r1,#0]
        0x0000190e:    4608        .F      MOV      r0,r1
        0x00001910:    6800        .h      LDR      r0,[r0,#0]
        0x00001912:    f2427110    B..q    MOV      r1,#0x2710
        0x00001916:    fbb0f0f1    ....    UDIV     r0,r0,r1
        0x0000191a:    3030        00      ADDS     r0,r0,#0x30
        0x0000191c:    496f        oI      LDR      r1,[pc,#444] ; [0x1adc] = 0x20000000
        0x0000191e:    7008        .p      STRB     r0,[r1,#0]
        0x00001920:    4870        pH      LDR      r0,[pc,#448] ; [0x1ae4] = 0x20000008
        0x00001922:    6800        .h      LDR      r0,[r0,#0]
        0x00001924:    f2427110    B..q    MOV      r1,#0x2710
        0x00001928:    fbb0f2f1    ....    UDIV     r2,r0,r1
        0x0000192c:    fb010012    ....    MLS      r0,r1,r2,r0
        0x00001930:    f44f717a    O.zq    MOV      r1,#0x3e8
        0x00001934:    fbb0f0f1    ....    UDIV     r0,r0,r1
        0x00001938:    3030        00      ADDS     r0,r0,#0x30
        0x0000193a:    4968        hI      LDR      r1,[pc,#416] ; [0x1adc] = 0x20000000
        0x0000193c:    7048        Hp      STRB     r0,[r1,#1]
        0x0000193e:    4869        iH      LDR      r0,[pc,#420] ; [0x1ae4] = 0x20000008
        0x00001940:    6800        .h      LDR      r0,[r0,#0]
        0x00001942:    f2427110    B..q    MOV      r1,#0x2710
        0x00001946:    fbb0f2f1    ....    UDIV     r2,r0,r1
        0x0000194a:    fb010012    ....    MLS      r0,r1,r2,r0
        0x0000194e:    f44f717a    O.zq    MOV      r1,#0x3e8
        0x00001952:    fbb0f2f1    ....    UDIV     r2,r0,r1
        0x00001956:    fb010012    ....    MLS      r0,r1,r2,r0
        0x0000195a:    2164        d!      MOVS     r1,#0x64
        0x0000195c:    fbb0f0f1    ....    UDIV     r0,r0,r1
        0x00001960:    3030        00      ADDS     r0,r0,#0x30
        0x00001962:    495e        ^I      LDR      r1,[pc,#376] ; [0x1adc] = 0x20000000
        0x00001964:    7088        .p      STRB     r0,[r1,#2]
        0x00001966:    485f        _H      LDR      r0,[pc,#380] ; [0x1ae4] = 0x20000008
        0x00001968:    6800        .h      LDR      r0,[r0,#0]
        0x0000196a:    f2427110    B..q    MOV      r1,#0x2710
        0x0000196e:    fbb0f2f1    ....    UDIV     r2,r0,r1
        0x00001972:    fb010012    ....    MLS      r0,r1,r2,r0
        0x00001976:    f44f717a    O.zq    MOV      r1,#0x3e8
        0x0000197a:    fbb0f2f1    ....    UDIV     r2,r0,r1
        0x0000197e:    fb010012    ....    MLS      r0,r1,r2,r0
        0x00001982:    2164        d!      MOVS     r1,#0x64
        0x00001984:    fbb0f2f1    ....    UDIV     r2,r0,r1
        0x00001988:    fb010012    ....    MLS      r0,r1,r2,r0
        0x0000198c:    210a        .!      MOVS     r1,#0xa
        0x0000198e:    fbb0f0f1    ....    UDIV     r0,r0,r1
        0x00001992:    3030        00      ADDS     r0,r0,#0x30
        0x00001994:    4951        QI      LDR      r1,[pc,#324] ; [0x1adc] = 0x20000000
        0x00001996:    70c8        .p      STRB     r0,[r1,#3]
        0x00001998:    4852        RH      LDR      r0,[pc,#328] ; [0x1ae4] = 0x20000008
        0x0000199a:    6800        .h      LDR      r0,[r0,#0]
        0x0000199c:    f2427110    B..q    MOV      r1,#0x2710
        0x000019a0:    fbb0f2f1    ....    UDIV     r2,r0,r1
        0x000019a4:    fb010012    ....    MLS      r0,r1,r2,r0
        0x000019a8:    f44f717a    O.zq    MOV      r1,#0x3e8
        0x000019ac:    fbb0f2f1    ....    UDIV     r2,r0,r1
        0x000019b0:    fb010012    ....    MLS      r0,r1,r2,r0
        0x000019b4:    2164        d!      MOVS     r1,#0x64
        0x000019b6:    fbb0f2f1    ....    UDIV     r2,r0,r1
        0x000019ba:    fb010012    ....    MLS      r0,r1,r2,r0
        0x000019be:    210a        .!      MOVS     r1,#0xa
        0x000019c0:    fbb0f2f1    ....    UDIV     r2,r0,r1
        0x000019c4:    fb010012    ....    MLS      r0,r1,r2,r0
        0x000019c8:    3030        00      ADDS     r0,r0,#0x30
        0x000019ca:    4944        DI      LDR      r1,[pc,#272] ; [0x1adc] = 0x20000000
        0x000019cc:    7108        .q      STRB     r0,[r1,#4]
        0x000019ce:    2000        .       MOVS     r0,#0
        0x000019d0:    7148        Hq      STRB     r0,[r1,#5]
        0x000019d2:    23fc        .#      MOVS     r3,#0xfc
        0x000019d4:    460a        .F      MOV      r2,r1
        0x000019d6:    f44f7184    O..q    MOV      r1,#0x108
        0x000019da:    f44f70c1    O..p    MOV      r0,#0x182
        0x000019de:    f7feffb9    ....    BL       LCD_Show_ASCII ; 0x954
        0x000019e2:    483f        ?H      LDR      r0,[pc,#252] ; [0x1ae0] = 0x40001000
        0x000019e4:    6a00        .j      LDR      r0,[r0,#0x20]
        0x000019e6:    f64f71ff    O..q    MOV      r1,#0xffff
        0x000019ea:    ea014010    ...@    AND      r0,r1,r0,LSR #16
        0x000019ee:    493d        =I      LDR      r1,[pc,#244] ; [0x1ae4] = 0x20000008
        0x000019f0:    6008        .`      STR      r0,[r1,#0]
        0x000019f2:    4608        .F      MOV      r0,r1
        0x000019f4:    6800        .h      LDR      r0,[r0,#0]
        0x000019f6:    f2427110    B..q    MOV      r1,#0x2710
        0x000019fa:    fbb0f0f1    ....    UDIV     r0,r0,r1
        0x000019fe:    3030        00      ADDS     r0,r0,#0x30
        0x00001a00:    4936        6I      LDR      r1,[pc,#216] ; [0x1adc] = 0x20000000
        0x00001a02:    7008        .p      STRB     r0,[r1,#0]
        0x00001a04:    4837        7H      LDR      r0,[pc,#220] ; [0x1ae4] = 0x20000008
        0x00001a06:    6800        .h      LDR      r0,[r0,#0]
        0x00001a08:    f2427110    B..q    MOV      r1,#0x2710
        0x00001a0c:    fbb0f2f1    ....    UDIV     r2,r0,r1
        0x00001a10:    fb010012    ....    MLS      r0,r1,r2,r0
        0x00001a14:    f44f717a    O.zq    MOV      r1,#0x3e8
        0x00001a18:    fbb0f0f1    ....    UDIV     r0,r0,r1
        0x00001a1c:    3030        00      ADDS     r0,r0,#0x30
        0x00001a1e:    492f        /I      LDR      r1,[pc,#188] ; [0x1adc] = 0x20000000
        0x00001a20:    7048        Hp      STRB     r0,[r1,#1]
        0x00001a22:    4830        0H      LDR      r0,[pc,#192] ; [0x1ae4] = 0x20000008
        0x00001a24:    6800        .h      LDR      r0,[r0,#0]
        0x00001a26:    f2427110    B..q    MOV      r1,#0x2710
        0x00001a2a:    fbb0f2f1    ....    UDIV     r2,r0,r1
        0x00001a2e:    fb010012    ....    MLS      r0,r1,r2,r0
        0x00001a32:    f44f717a    O.zq    MOV      r1,#0x3e8
        0x00001a36:    fbb0f2f1    ....    UDIV     r2,r0,r1
        0x00001a3a:    fb010012    ....    MLS      r0,r1,r2,r0
        0x00001a3e:    2164        d!      MOVS     r1,#0x64
        0x00001a40:    fbb0f0f1    ....    UDIV     r0,r0,r1
        0x00001a44:    3030        00      ADDS     r0,r0,#0x30
        0x00001a46:    4925        %I      LDR      r1,[pc,#148] ; [0x1adc] = 0x20000000
        0x00001a48:    7088        .p      STRB     r0,[r1,#2]
        0x00001a4a:    4826        &H      LDR      r0,[pc,#152] ; [0x1ae4] = 0x20000008
        0x00001a4c:    6800        .h      LDR      r0,[r0,#0]
        0x00001a4e:    f2427110    B..q    MOV      r1,#0x2710
        0x00001a52:    fbb0f2f1    ....    UDIV     r2,r0,r1
        0x00001a56:    fb010012    ....    MLS      r0,r1,r2,r0
        0x00001a5a:    f44f717a    O.zq    MOV      r1,#0x3e8
        0x00001a5e:    fbb0f2f1    ....    UDIV     r2,r0,r1
        0x00001a62:    fb010012    ....    MLS      r0,r1,r2,r0
        0x00001a66:    2164        d!      MOVS     r1,#0x64
        0x00001a68:    fbb0f2f1    ....    UDIV     r2,r0,r1
        0x00001a6c:    fb010012    ....    MLS      r0,r1,r2,r0
        0x00001a70:    210a        .!      MOVS     r1,#0xa
        0x00001a72:    fbb0f0f1    ....    UDIV     r0,r0,r1
        0x00001a76:    3030        00      ADDS     r0,r0,#0x30
        0x00001a78:    4918        .I      LDR      r1,[pc,#96] ; [0x1adc] = 0x20000000
        0x00001a7a:    70c8        .p      STRB     r0,[r1,#3]
        0x00001a7c:    4819        .H      LDR      r0,[pc,#100] ; [0x1ae4] = 0x20000008
        0x00001a7e:    6800        .h      LDR      r0,[r0,#0]
        0x00001a80:    f2427110    B..q    MOV      r1,#0x2710
        0x00001a84:    fbb0f2f1    ....    UDIV     r2,r0,r1
        0x00001a88:    fb010012    ....    MLS      r0,r1,r2,r0
        0x00001a8c:    f44f717a    O.zq    MOV      r1,#0x3e8
        0x00001a90:    fbb0f2f1    ....    UDIV     r2,r0,r1
        0x00001a94:    fb010012    ....    MLS      r0,r1,r2,r0
        0x00001a98:    2164        d!      MOVS     r1,#0x64
        0x00001a9a:    fbb0f2f1    ....    UDIV     r2,r0,r1
        0x00001a9e:    fb010012    ....    MLS      r0,r1,r2,r0
        0x00001aa2:    210a        .!      MOVS     r1,#0xa
        0x00001aa4:    fbb0f2f1    ....    UDIV     r2,r0,r1
        0x00001aa8:    fb010012    ....    MLS      r0,r1,r2,r0
        0x00001aac:    3030        00      ADDS     r0,r0,#0x30
        0x00001aae:    490b        .I      LDR      r1,[pc,#44] ; [0x1adc] = 0x20000000
        0x00001ab0:    7108        .q      STRB     r0,[r1,#4]
        0x00001ab2:    2000        .       MOVS     r0,#0
        0x00001ab4:    7148        Hq      STRB     r0,[r1,#5]
        0x00001ab6:    23fc        .#      MOVS     r3,#0xfc
        0x00001ab8:    460a        .F      MOV      r2,r1
        0x00001aba:    f44f7190    O..q    MOV      r1,#0x120
        0x00001abe:    f44f70c1    O..p    MOV      r0,#0x182
        0x00001ac2:    f7feff47    ..G.    BL       LCD_Show_ASCII ; 0x954
        0x00001ac6:    4808        .H      LDR      r0,[pc,#32] ; [0x1ae8] = 0x2000000f
        0x00001ac8:    7800        .x      LDRB     r0,[r0,#0]
        0x00001aca:    2801        .(      CMP      r0,#1
        0x00001acc:    d104        ..      BNE      0x1ad8 ; main + 1816
        0x00001ace:    2000        .       MOVS     r0,#0
        0x00001ad0:    4905        .I      LDR      r1,[pc,#20] ; [0x1ae8] = 0x2000000f
        0x00001ad2:    7008        .p      STRB     r0,[r1,#0]
        0x00001ad4:    f7fff874    ..t.    BL       LCD_show_item ; 0xbc0
        0x00001ad8:    e4b0        ..      B        0x143c ; main + 124
    $d
        0x00001ada:    0000        ..      DCW    0
        0x00001adc:    20000000    ...     DCD    536870912
        0x00001ae0:    40001000    ...@    DCD    1073745920
        0x00001ae4:    20000008    ...     DCD    536870920
        0x00001ae8:    2000000f    ...     DCD    536870927
    $t
    i.uart_SendChar
    uart_SendChar
        0x00001aec:    e004        ..      B        0x1af8 ; uart_SendChar + 12
        0x00001aee:    6842        Bh      LDR      r2,[r0,#4]
        0x00001af0:    f0020201    ....    AND      r2,r2,#1
        0x00001af4:    b902        ..      CBNZ     r2,0x1af8 ; uart_SendChar + 12
        0x00001af6:    e000        ..      B        0x1afa ; uart_SendChar + 14
        0x00001af8:    e7f9        ..      B        0x1aee ; uart_SendChar + 2
        0x00001afa:    bf00        ..      NOP      
        0x00001afc:    6001        .`      STR      r1,[r0,#0]
        0x00001afe:    4770        pG      BX       lr
    i.uart_init
    uart_init
        0x00001b00:    e92d41f0    -..A    PUSH     {r4-r8,lr}
        0x00001b04:    4604        .F      MOV      r4,r0
        0x00001b06:    460d        .F      MOV      r5,r1
        0x00001b08:    e9ddc808    ....    LDRD     r12,r8,[sp,#0x20]
        0x00001b0c:    e9dd6706    ...g    LDRD     r6,r7,[sp,#0x18]
        0x00001b10:    2100        .!      MOVS     r1,#0
        0x00001b12:    b10a        ..      CBZ      r2,0x1b18 ; uart_init + 24
        0x00001b14:    f0410101    A...    ORR      r1,r1,#1
        0x00001b18:    b10b        ..      CBZ      r3,0x1b1e ; uart_init + 30
        0x00001b1a:    f0410102    A...    ORR      r1,r1,#2
        0x00001b1e:    b10e        ..      CBZ      r6,0x1b24 ; uart_init + 36
        0x00001b20:    f0410104    A...    ORR      r1,r1,#4
        0x00001b24:    b10f        ..      CBZ      r7,0x1b2a ; uart_init + 42
        0x00001b26:    f0410108    A...    ORR      r1,r1,#8
        0x00001b2a:    f1bc0f00    ....    CMP      r12,#0
        0x00001b2e:    d001        ..      BEQ      0x1b34 ; uart_init + 52
        0x00001b30:    f0410110    A...    ORR      r1,r1,#0x10
        0x00001b34:    f1b80f00    ....    CMP      r8,#0
        0x00001b38:    d001        ..      BEQ      0x1b3e ; uart_init + 62
        0x00001b3a:    f0410120    A. .    ORR      r1,r1,#0x20
        0x00001b3e:    2000        .       MOVS     r0,#0
        0x00001b40:    60a0        .`      STR      r0,[r4,#8]
        0x00001b42:    6125        %a      STR      r5,[r4,#0x10]
        0x00001b44:    60a1        .`      STR      r1,[r4,#8]
        0x00001b46:    6860        `h      LDR      r0,[r4,#4]
        0x00001b48:    f000000c    ....    AND      r0,r0,#0xc
        0x00001b4c:    b110        ..      CBZ      r0,0x1b54 ; uart_init + 84
        0x00001b4e:    2001        .       MOVS     r0,#1
        0x00001b50:    e8bd81f0    ....    POP      {r4-r8,pc}
        0x00001b54:    2000        .       MOVS     r0,#0
        0x00001b56:    e7fb        ..      B        0x1b50 ; uart_init + 80
    $d.realdata
    .constdata
    Hzk24
        0x00001b58:    00000000    ....    DCD    0
        0x00001b5c:    00000000    ....    DCD    0
        0x00001b60:    00000000    ....    DCD    0
        0x00001b64:    80000180    ....    DCD    2147484032
        0x00001b68:    d9800001    ....    DCD    3649044481
        0x00001b6c:    0fdfe00c    ....    DCD    266330124
        0x00001b70:    800cd980    ....    DCD    2148325760
        0x00001b74:    d9800cd9    ....    DCD    3649047769
        0x00001b78:    0cd9800c    ....    DCD    215580684
        0x00001b7c:    800cd980    ....    DCD    2148325760
        0x00001b80:    d9800cd9    ....    DCD    3649047769
        0x00001b84:    0cd9800c    ....    DCD    215580684
        0x00001b88:    800cd980    ....    DCD    2148325760
        0x00001b8c:    d9800cd9    ....    DCD    3649047769
        0x00001b90:    0cd9800c    ....    DCD    215580684
        0x00001b94:    400cd880    ...@    DCD    1074583680
        0x00001b98:    ce200fd8    .. .    DCD    3458207704
        0x00001b9c:    0001100c    ....    DCD    69644
        0x00001ba0:    00000000    ....    DCD    0
        0x00001ba4:    00000000    ....    DCD    0
        0x00001ba8:    00000000    ....    DCD    0
        0x00001bac:    40006000    .`.@    DCD    1073766400
        0x00001bb0:    fcc00060    `...    DCD    4240441440
        0x00001bb4:    00608007    ..`.    DCD    6324231
        0x00001bb8:    00066480    .d..    DCD    418944
        0x00001bbc:    64f007fc    ...d    DCD    1693452284
        0x00001bc0:    0664c006    ..d.    DCD    107266054
        0x00001bc4:    c007fcc0    ....    DCD    3221748928
        0x00001bc8:    f0c006e4    ....    DCD    4039116516
        0x00001bcc:    0170c000    ..p.    DCD    24166400
        0x00001bd0:    c00378c0    .x..    DCD    3221452992
        0x00001bd4:    64c00668    h..d    DCD    1690306152
        0x00001bd8:    0462c006    ..b.    DCD    73580550
        0x00001bdc:    700060c0    .`.p    DCD    1879072960
        0x00001be0:    fe300001    ..0.    DCD    4264558593
        0x00001be4:    00000007    ....    DCD    7
        0x00001be8:    00000000    ....    DCD    0
        0x00001bec:    00000000    ....    DCD    0
        0x00001bf0:    06000000    ....    DCD    100663296
        0x00001bf4:    c007efc0    ....    DCD    3221745600
        0x00001bf8:    6cc0066c    l..l    DCD    1824523884
        0x00001bfc:    066cc006    ..l.    DCD    107790342
        0x00001c00:    c0066cc0    .l..    DCD    3221646528
        0x00001c04:    90c007ef    ....    DCD    2428504047
        0x00001c08:    01180000    ....    DCD    18350080
        0x00001c0c:    000fffe0    ....    DCD    1048544
        0x00001c10:    8200004c    L...    DCD    2181038156
        0x00001c14:    1f018001    ....    DCD    520192001
        0x00001c18:    c01fefe0    ....    DCD    3223318496
        0x00001c1c:    6cc0066c    l..l    DCD    1824523884
        0x00001c20:    066cc006    ..l.    DCD    107790342
        0x00001c24:    c0066cc0    .l..    DCD    3221646528
        0x00001c28:    6cc007ef    ...l    DCD    1824524271
        0x00001c2c:    00000006    ....    DCD    6
        0x00001c30:    00000000    ....    DCD    0
        0x00001c34:    00000000    ....    DCD    0
        0x00001c38:    00c30000    ....    DCD    12779520
        0x00001c3c:    0000c300    ....    DCD    49920
        0x00001c40:    c30001c3    ....    DCD    3271557571
        0x00001c44:    06c31002    ....    DCD    113446914
        0x00001c48:    2004c320     ..     DCD    537183008
        0x00001c4c:    ff6000c3    ..`.    DCD    4284481731
        0x00001c50:    00c3000f    ....    DCD    12779535
        0x00001c54:    0000c300    ....    DCD    49920
        0x00001c58:    c38000c3    ....    DCD    3279945923
        0x00001c5c:    00c34000    .@..    DCD    12795904
        0x00001c60:    3000e370    p..0    DCD    805364592
        0x00001c64:    23100163    c..#    DCD    588251491
        0x00001c68:    07330003    ..3.    DCD    120782851
        0x00001c6c:    000e1300    ....    DCD    922368
        0x00001c70:    07000c0b    ....    DCD    117443595
        0x00001c74:    0004000c    ....    DCD    262156
        0x00001c78:    00000000    ....    DCD    0
        0x00001c7c:    00000000    ....    DCD    0
        0x00001c80:    00000000    ....    DCD    0
        0x00001c84:    00001800    ....    DCD    6144
        0x00001c88:    18000018    ....    DCD    402653208
        0x00001c8c:    0fffe000    ....    DCD    268427264
        0x00001c90:    00003800    .8..    DCD    14336
        0x00001c94:    84000048    H...    DCD    2214592584
        0x00001c98:    018a0000    ....    DCD    25821184
        0x00001c9c:    800f3100    .1..    DCD    2148479232
        0x00001ca0:    20600c20     .`     DCD    543165472
        0x00001ca4:    0016c008    ....    DCD    1490952
        0x00001ca8:    c00226c0    .&..    DCD    3221366464
        0x00001cac:    66c00666    f..f    DCD    1723860582
        0x00001cb0:    0d06c005    ....    DCD    218546181
        0x00001cb4:    400906c0    ...@    DCD    1074333376
        0x00001cb8:    fe200106    .. .    DCD    4263510278
        0x00001cbc:    00000001    ....    DCD    1
        0x00001cc0:    00000000    ....    DCD    0
        0x00001cc4:    00000000    ....    DCD    0
        0x00001cc8:    00040000    ....    DCD    262144
        0x00001ccc:    c000c4c0    ....    DCD    3221275840
        0x00001cd0:    c4c000c4    ....    DCD    3300917444
        0x00001cd4:    0044c00f    ..D.    DCD    4505615
        0x00001cd8:    c00064c0    .d..    DCD    3221251264
        0x00001cdc:    14c000a4    ....    DCD    348127396
        0x00001ce0:    0304c001    ....    DCD    50642945
        0x00001ce4:    000204c0    ....    DCD    132288
        0x00001ce8:    00000204    ....    DCD    516
        0x00001cec:    03ffc000    ....    DCD    67092480
        0x00001cf0:    c00364c0    .d..    DCD    3221447872
        0x00001cf4:    64c00364    d..d    DCD    1690305380
        0x00001cf8:    0364c003    ..d.    DCD    56934403
        0x00001cfc:    c00364c0    .d..    DCD    3221447872
        0x00001d00:    fff00364    d...    DCD    4293919588
        0x00001d04:    0000000f    ....    DCD    15
        0x00001d08:    00000000    ....    DCD    0
        0x00001d0c:    00000000    ....    DCD    0
        0x00001d10:    00000000    ....    DCD    0
        0x00001d14:    8000c180    ....    DCD    2147533184
        0x00001d18:    fd800081    ....    DCD    4253024385
        0x00001d1c:    0c0d800f    ....    DCD    202211343
        0x00001d20:    80040ff0    ....    DCD    2147749872
        0x00001d24:    21800361    a..!    DCD    562037601
        0x00001d28:    06358002    ..5.    DCD    104169474
        0x00001d2c:    c00c1380    ....    DCD    3222016896
        0x00001d30:    01f00c09    ....    DCD    32508937
        0x00001d34:    0ff9a000    ....    DCD    268017664
        0x00001d38:    8000c180    ....    DCD    2147533184
        0x00001d3c:    c18000c1    ....    DCD    3246391489
        0x00001d40:    00c18000    ....    DCD    12681216
        0x00001d44:    8000c180    ....    DCD    2147533184
        0x00001d48:    fce000c1    ....    DCD    4242538689
        0x00001d4c:    0000001f    ....    DCD    31
    ASCII_num
        0x00001d50:    18000000    ....    DCD    402653184
        0x00001d54:    42424224    $BBB    DCD    1111638564
        0x00001d58:    42424242    BBBB    DCD    1111638594
        0x00001d5c:    00001824    $...    DCD    6180
        0x00001d60:    10000000    ....    DCD    268435456
        0x00001d64:    1010101c    ....    DCD    269488156
        0x00001d68:    10101010    ....    DCD    269488144
        0x00001d6c:    00007c10    .|..    DCD    31760
        0x00001d70:    3c000000    ...<    DCD    1006632960
        0x00001d74:    40424242    BBB@    DCD    1078084162
        0x00001d78:    04081020     ...    DCD    67637280
        0x00001d7c:    00007e42    B~..    DCD    32322
        0x00001d80:    3c000000    ...<    DCD    1006632960
        0x00001d84:    20404242    BB@     DCD    541082178
        0x00001d88:    42402018    . @B    DCD    1111498776
        0x00001d8c:    00003c42    B<..    DCD    15426
        0x00001d90:    20000000    ...     DCD    536870912
        0x00001d94:    24283030    00($    DCD    606613552
        0x00001d98:    20fe2224    $".     DCD    553525796
        0x00001d9c:    0000f820     ...    DCD    63520
        0x00001da0:    7e000000    ...~    DCD    2113929216
        0x00001da4:    1e020202    ....    DCD    503448066
        0x00001da8:    42404022    "@@B    DCD    1111506978
        0x00001dac:    00001c22    "...    DCD    7202
        0x00001db0:    18000000    ....    DCD    402653184
        0x00001db4:    3a020224    $..:    DCD    973210148
        0x00001db8:    42424246    FBBB    DCD    1111638598
        0x00001dbc:    00003844    D8..    DCD    14404
        0x00001dc0:    7e000000    ...~    DCD    2113929216
        0x00001dc4:    10202042    B  .    DCD    270540866
        0x00001dc8:    08080810    ....    DCD    134744080
        0x00001dcc:    00000808    ....    DCD    2056
        0x00001dd0:    3c000000    ...<    DCD    1006632960
        0x00001dd4:    24424242    BBB$    DCD    608322114
        0x00001dd8:    42422418    .$BB    DCD    1111630872
        0x00001ddc:    00003c42    B<..    DCD    15426
        0x00001de0:    1c000000    ....    DCD    469762048
        0x00001de4:    42424222    "BBB    DCD    1111638562
        0x00001de8:    40405c62    b\@@    DCD    1077959778
        0x00001dec:    00001824    $...    DCD    6180
        0x00001df0:    08000000    ....    DCD    134217728
        0x00001df4:    14141808    ....    DCD    336861192
        0x00001df8:    42223c24    $<"B    DCD    1109539876
        0x00001dfc:    0000e742    B...    DCD    59202
        0x00001e00:    1f000000    ....    DCD    520093696
        0x00001e04:    1e222222    """.    DCD    505553442
        0x00001e08:    42424222    "BBB    DCD    1111638562
        0x00001e0c:    00001f22    "...    DCD    7970
        0x00001e10:    7c000000    ...|    DCD    2080374784
        0x00001e14:    01014242    BB..    DCD    16859714
        0x00001e18:    42010101    ...B    DCD    1107362049
        0x00001e1c:    00001c22    "...    DCD    7202
        0x00001e20:    1f000000    ....    DCD    520093696
        0x00001e24:    42424222    "BBB    DCD    1111638562
        0x00001e28:    42424242    BBBB    DCD    1111638594
        0x00001e2c:    00001f22    "...    DCD    7970
        0x00001e30:    3f000000    ...?    DCD    1056964608
        0x00001e34:    1e121242    B...    DCD    504500802
        0x00001e38:    42021212    ...B    DCD    1107431954
        0x00001e3c:    00003f42    B?..    DCD    16194
        0x00001e40:    3f000000    ...?    DCD    1056964608
        0x00001e44:    1e121242    B...    DCD    504500802
        0x00001e48:    02021212    ....    DCD    33690130
        0x00001e4c:    00000702    ....    DCD    1794
        0x00001e50:    3c000000    ...<    DCD    1006632960
        0x00001e54:    01012222    ""..    DCD    16851490
        0x00001e58:    22217101    .q!"    DCD    572616961
        0x00001e5c:    00001c22    "...    DCD    7202
        0x00001e60:    e7000000    ....    DCD    3875536896
        0x00001e64:    42424242    BBBB    DCD    1111638594
        0x00001e68:    4242427e    ~BBB    DCD    1111638654
        0x00001e6c:    0000e742    B...    DCD    59202
        0x00001e70:    3e000000    ...>    DCD    1040187392
        0x00001e74:    08080808    ....    DCD    134744072
        0x00001e78:    08080808    ....    DCD    134744072
        0x00001e7c:    00003e08    .>..    DCD    15880
        0x00001e80:    7c000000    ...|    DCD    2080374784
        0x00001e84:    10101010    ....    DCD    269488144
        0x00001e88:    10101010    ....    DCD    269488144
        0x00001e8c:    0f111010    ....    DCD    252776464
        0x00001e90:    77000000    ...w    DCD    1996488704
        0x00001e94:    0e0a1222    "...    DCD    235541026
        0x00001e98:    2212120a    ..."    DCD    571609610
        0x00001e9c:    00007722    "w..    DCD    30498
        0x00001ea0:    07000000    ....    DCD    117440512
        0x00001ea4:    02020202    ....    DCD    33686018
        0x00001ea8:    02020202    ....    DCD    33686018
        0x00001eac:    00007f42    B...    DCD    32578
        0x00001eb0:    77000000    ...w    DCD    1996488704
        0x00001eb4:    36363636    6666    DCD    909522486
        0x00001eb8:    2a2a2a36    6***    DCD    707406390
        0x00001ebc:    00006b2a    *k..    DCD    27434
        0x00001ec0:    e3000000    ....    DCD    3808428032
        0x00001ec4:    4a4a4646    FFJJ    DCD    1246381638
        0x00001ec8:    62525252    RRRb    DCD    1649562194
        0x00001ecc:    00004762    bG..    DCD    18274
        0x00001ed0:    1c000000    ....    DCD    469762048
        0x00001ed4:    41414122    "AAA    DCD    1094795554
        0x00001ed8:    41414141    AAAA    DCD    1094795585
        0x00001edc:    00001c22    "...    DCD    7202
        0x00001ee0:    3f000000    ...?    DCD    1056964608
        0x00001ee4:    42424242    BBBB    DCD    1111638594
        0x00001ee8:    0202023e    >...    DCD    33686078
        0x00001eec:    00000702    ....    DCD    1794
        0x00001ef0:    1c000000    ....    DCD    469762048
        0x00001ef4:    41414122    "AAA    DCD    1094795554
        0x00001ef8:    4d414141    AAAM    DCD    1296122177
        0x00001efc:    00601c32    2.`.    DCD    6298674
        0x00001f00:    3f000000    ...?    DCD    1056964608
        0x00001f04:    3e424242    BBB>    DCD    1044529730
        0x00001f08:    22221212    ..""    DCD    572658194
        0x00001f0c:    0000c742    B...    DCD    51010
        0x00001f10:    7c000000    ...|    DCD    2080374784
        0x00001f14:    04024242    BB..    DCD    67256898
        0x00001f18:    42402018    . @B    DCD    1111498776
        0x00001f1c:    00003e42    B>..    DCD    15938
        0x00001f20:    7f000000    ....    DCD    2130706432
        0x00001f24:    08080849    I...    DCD    134744137
        0x00001f28:    08080808    ....    DCD    134744072
        0x00001f2c:    00001c08    ....    DCD    7176
        0x00001f30:    e7000000    ....    DCD    3875536896
        0x00001f34:    42424242    BBBB    DCD    1111638594
        0x00001f38:    42424242    BBBB    DCD    1111638594
        0x00001f3c:    00003c42    B<..    DCD    15426
        0x00001f40:    e7000000    ....    DCD    3875536896
        0x00001f44:    24224242    BB"$    DCD    606224962
        0x00001f48:    18141424    $...    DCD    403969060
        0x00001f4c:    00000808    ....    DCD    2056
        0x00001f50:    6b000000    ...k    DCD    1795162112
        0x00001f54:    2a2a2a2a    ****    DCD    707406378
        0x00001f58:    1414362a    *6..    DCD    336868906
        0x00001f5c:    00001414    ....    DCD    5140
        0x00001f60:    e7000000    ....    DCD    3875536896
        0x00001f64:    18242442    B$$.    DCD    405021762
        0x00001f68:    24241818    ..$$    DCD    606345240
        0x00001f6c:    0000e742    B...    DCD    59202
        0x00001f70:    77000000    ...w    DCD    1996488704
        0x00001f74:    14142222    ""..    DCD    336863778
        0x00001f78:    08080808    ....    DCD    134744072
        0x00001f7c:    00001c08    ....    DCD    7176
        0x00001f80:    7e000000    ...~    DCD    2113929216
        0x00001f84:    10102021    ! ..    DCD    269492257
        0x00001f88:    42040408    ...B    DCD    1107559432
        0x00001f8c:    00003f42    B?..    DCD    16194
        0x00001f90:    00000000    ....    DCD    0
        0x00001f94:    1c000000    ....    DCD    469762048
        0x00001f98:    222c3022    "0,"    DCD    573321250
        0x00001f9c:    00006c32    2l..    DCD    27698
        0x00001fa0:    00000000    ....    DCD    0
        0x00001fa4:    1a020203    ....    DCD    436339203
        0x00001fa8:    42424226    &BBB    DCD    1111638566
        0x00001fac:    00001a26    &...    DCD    6694
        0x00001fb0:    00000000    ....    DCD    0
        0x00001fb4:    38000000    ...8    DCD    939524096
        0x00001fb8:    02020244    D...    DCD    33686084
        0x00001fbc:    00003844    D8..    DCD    14404
        0x00001fc0:    00000000    ....    DCD    0
        0x00001fc4:    7c404060    `@@|    DCD    2084585568
        0x00001fc8:    42424242    BBBB    DCD    1111638594
        0x00001fcc:    0000dc62    b...    DCD    56418
        0x00001fd0:    00000000    ....    DCD    0
        0x00001fd4:    3c000000    ...<    DCD    1006632960
        0x00001fd8:    027e4242    BB~.    DCD    41828930
        0x00001fdc:    00003c42    B<..    DCD    15426
        0x00001fe0:    00000000    ....    DCD    0
        0x00001fe4:    3e084830    0H.>    DCD    1040730160
        0x00001fe8:    08080808    ....    DCD    134744072
        0x00001fec:    00003e08    .>..    DCD    15880
        0x00001ff0:    00000000    ....    DCD    0
        0x00001ff4:    7c000000    ...|    DCD    2080374784
        0x00001ff8:    021c2222    ""..    DCD    35398178
        0x00001ffc:    3c42423c    <BB<    DCD    1010975292
        0x00002000:    00000000    ....    DCD    0
        0x00002004:    3a020203    ...:    DCD    973210115
        0x00002008:    42424246    FBBB    DCD    1111638598
        0x0000200c:    0000e742    B...    DCD    59202
        0x00002010:    0c000000    ....    DCD    201326592
        0x00002014:    0e00000c    ....    DCD    234881036
        0x00002018:    08080808    ....    DCD    134744072
        0x0000201c:    00003e08    .>..    DCD    15880
        0x00002020:    30000000    ...0    DCD    805306368
        0x00002024:    38000030    0..8    DCD    939524144
        0x00002028:    20202020            DCD    538976288
        0x0000202c:    1e222020      ".    DCD    505552928
        0x00002030:    00000000    ....    DCD    0
        0x00002034:    72020203    ...r    DCD    1912734211
        0x00002038:    120e0a12    ....    DCD    302909970
        0x0000203c:    00007722    "w..    DCD    30498
        0x00002040:    08000000    ....    DCD    134217728
        0x00002044:    0808080e    ....    DCD    134744078
        0x00002048:    08080808    ....    DCD    134744072
        0x0000204c:    00003e08    .>..    DCD    15880
        0x00002050:    00000000    ....    DCD    0
        0x00002054:    7f000000    ....    DCD    2130706432
        0x00002058:    92929292    ....    DCD    2459079314
        0x0000205c:    0000b792    ....    DCD    46994
        0x00002060:    00000000    ....    DCD    0
        0x00002064:    3b000000    ...;    DCD    989855744
        0x00002068:    42424246    FBBB    DCD    1111638598
        0x0000206c:    0000e742    B...    DCD    59202
        0x00002070:    00000000    ....    DCD    0
        0x00002074:    3c000000    ...<    DCD    1006632960
        0x00002078:    42424242    BBBB    DCD    1111638594
        0x0000207c:    00003c42    B<..    DCD    15426
        0x00002080:    00000000    ....    DCD    0
        0x00002084:    1b000000    ....    DCD    452984832
        0x00002088:    42424226    &BBB    DCD    1111638566
        0x0000208c:    07021a26    &...    DCD    117578278
        0x00002090:    00000000    ....    DCD    0
        0x00002094:    58000000    ...X    DCD    1476395008
        0x00002098:    42424264    dBBB    DCD    1111638628
        0x0000209c:    e0405864    dX@.    DCD    3762313316
        0x000020a0:    00000000    ....    DCD    0
        0x000020a4:    77000000    ...w    DCD    1996488704
        0x000020a8:    0404044c    L...    DCD    67372108
        0x000020ac:    00001f04    ....    DCD    7940
        0x000020b0:    00000000    ....    DCD    0
        0x000020b4:    7c000000    ...|    DCD    2080374784
        0x000020b8:    403c0242    B.<@    DCD    1077674562
        0x000020bc:    00003e42    B>..    DCD    15938
        0x000020c0:    00000000    ....    DCD    0
        0x000020c4:    3e080800    ...>    DCD    1040713728
        0x000020c8:    08080808    ....    DCD    134744072
        0x000020cc:    00003048    H0..    DCD    12360
        0x000020d0:    00000000    ....    DCD    0
        0x000020d4:    63000000    ...c    DCD    1660944384
        0x000020d8:    42424242    BBBB    DCD    1111638594
        0x000020dc:    0000dc62    b...    DCD    56418
        0x000020e0:    00000000    ....    DCD    0
        0x000020e4:    77000000    ...w    DCD    1996488704
        0x000020e8:    14142222    ""..    DCD    336863778
        0x000020ec:    00000808    ....    DCD    2056
        0x000020f0:    00000000    ....    DCD    0
        0x000020f4:    db000000    ....    DCD    3674210304
        0x000020f8:    2a5a5291    .RZ*    DCD    710562449
        0x000020fc:    00002424    $$..    DCD    9252
        0x00002100:    00000000    ....    DCD    0
        0x00002104:    6e000000    ...n    DCD    1845493760
        0x00002108:    18181824    $...    DCD    404232228
        0x0000210c:    00007624    $v..    DCD    30244
        0x00002110:    00000000    ....    DCD    0
        0x00002114:    e7000000    ....    DCD    3875536896
        0x00002118:    18242442    B$$.    DCD    405021762
        0x0000211c:    06080818    ....    DCD    101189656
        0x00002120:    00000000    ....    DCD    0
        0x00002124:    7e000000    ...~    DCD    2113929216
        0x00002128:    08081022    "...    DCD    134746146
        0x0000212c:    00007e44    D~..    DCD    32324
        0x00002130:    00000000    ....    DCD    0
        0x00002134:    00000000    ....    DCD    0
        0x00002138:    00000000    ....    DCD    0
        0x0000213c:    ff000000    ....    DCD    4278190080
        0x00002140:    00000000    ....    DCD    0
        0x00002144:    18180000    ....    DCD    404226048
        0x00002148:    00000000    ....    DCD    0
        0x0000214c:    00001818    ....    DCD    6168
        0x00002150:    40000000    ...@    DCD    1073741824
        0x00002154:    04081020     ...    DCD    67637280
        0x00002158:    10080402    ....    DCD    268960770
        0x0000215c:    00004020     @..    DCD    16416
        0x00002160:    00000000    ....    DCD    0
        0x00002164:    00000000    ....    DCD    0
        0x00002168:    00000000    ....    DCD    0
        0x0000216c:    00000000    ....    DCD    0
        0x00002170:    00000000    ....    DCD    0
        0x00002174:    10101000    ....    DCD    269488128
        0x00002178:    101010fe    ....    DCD    269488382
        0x0000217c:    00000000    ....    DCD    0
        0x00002180:    00000000    ....    DCD    0
        0x00002184:    00000000    ....    DCD    0
        0x00002188:    0000007e    ~...    DCD    126
        0x0000218c:    00000000    ....    DCD    0
    Title
        0x00002190:    00000000    ....    DCD    0
        0x00002194:    00000000    ....    DCD    0
        0x00002198:    00000000    ....    DCD    0
        0x0000219c:    00000000    ....    DCD    0
        0x000021a0:    00000000    ....    DCD    0
        0x000021a4:    00000000    ....    DCD    0
        0x000021a8:    00000000    ....    DCD    0
        0x000021ac:    00000000    ....    DCD    0
        0x000021b0:    00000000    ....    DCD    0
        0x000021b4:    00000000    ....    DCD    0
        0x000021b8:    00003000    .0..    DCD    12288
        0x000021bc:    00000000    ....    DCD    0
        0x000021c0:    00000000    ....    DCD    0
        0x000021c4:    00000000    ....    DCD    0
        0x000021c8:    00000000    ....    DCD    0
        0x000021cc:    00000000    ....    DCD    0
        0x000021d0:    00000000    ....    DCD    0
        0x000021d4:    00000000    ....    DCD    0
        0x000021d8:    00000000    ....    DCD    0
        0x000021dc:    00000000    ....    DCD    0
        0x000021e0:    00003000    .0..    DCD    12288
        0x000021e4:    003c0000    ..<.    DCD    3932160
        0x000021e8:    00000000    ....    DCD    0
        0x000021ec:    01000000    ....    DCD    16777216
        0x000021f0:    000000c0    ....    DCD    192
        0x000021f4:    00000006    ....    DCD    6
        0x000021f8:    00000000    ....    DCD    0
        0x000021fc:    01070000    ....    DCD    17235968
        0x00002200:    00f000e0    ....    DCD    15728864
        0x00002204:    00000000    ....    DCD    0
        0x00002208:    00003001    .0..    DCD    12289
        0x0000220c:    00fe0000    ....    DCD    16646144
        0x00002210:    00000000    ....    DCD    0
        0x00002214:    c3011c00    ....    DCD    3271629824
        0x00002218:    000000f0    ....    DCD    240
        0x0000221c:    00000004    ....    DCD    4
        0x00002220:    00800c00    ....    DCD    8391680
        0x00002224:    070f0018    ....    DCD    118423576
        0x00002228:    00f803f8    ....    DCD    16253944
        0x0000222c:    00000000    ....    DCD    0
        0x00002230:    03003001    .0..    DCD    50343937
        0x00002234:    00fe0100    ....    DCD    16646400
        0x00002238:    00000000    ....    DCD    0
        0x0000223c:    c7011c00    ....    DCD    3338738688
        0x00002240:    000000f0    ....    DCD    240
        0x00002244:    4800000c    ...H    DCD    1207959564
        0x00002248:    03c00d00    ....    DCD    62917888
        0x0000224c:    0f1f0018    ....    DCD    253689880
        0x00002250:    00f807f8    ....    DCD    16254968
        0x00002254:    60100000    ...`    DCD    1611661312
        0x00002258:    1f00b801    ....    DCD    520140801
        0x0000225c:    00c60300    ....    DCD    12976896
        0x00002260:    00000000    ....    DCD    0
        0x00002264:    c7010c00    ....    DCD    3338734592
        0x00002268:    80010078    x...    DCD    2147549304
        0x0000226c:    c800000c    ....    DCD    3355443212
        0x00002270:    03800d00    ....    DCD    58723584
        0x00002274:    1e3b0018    ..;.    DCD    507183128
        0x00002278:    01100f3c    <...    DCD    17829692
        0x0000227c:    60100007    ...`    DCD    1611661319
        0x00002280:    3f00f803    ...?    DCD    1057028099
        0x00002284:    00800300    ....    DCD    8389376
        0x00002288:    00000c00    ....    DCD    3072
        0x0000228c:    c2030e00    ....    DCD    3254980096
        0x00002290:    80010038    8...    DCD    2147549240
        0x00002294:    c800000d    ....    DCD    3355443213
        0x00002298:    03800d00    ....    DCD    58723584
        0x0000229c:    1c30001c    ..0.    DCD    472907804
        0x000022a0:    01000e1e    ....    DCD    16780830
        0x000022a4:    6038009f    ..8`    DCD    1614282911
        0x000022a8:    fc00f007    ....    DCD    4227919879
        0x000022ac:    00000700    ....    DCD    1792
        0x000022b0:    00000c00    ....    DCD    3072
        0x000022b4:    c0030e00    ....    DCD    3221425664
        0x000022b8:    80630018    ..c.    DCD    2153971736
        0x000022bc:    9b01800f    ....    DCD    2600566799
        0x000022c0:    03606f00    .o`.    DCD    56651520
        0x000022c4:    38300008    ..08    DCD    942669832
        0x000022c8:    03001c0e    ....    DCD    50338830
        0x000022cc:    6038009f    ..8`    DCD    1614282911
        0x000022d0:    fc00b007    ....    DCD    4227903495
        0x000022d4:    00000600    ....    DCD    1536
        0x000022d8:    00000c00    ....    DCD    3072
        0x000022dc:    c0030e00    ....    DCD    3221425664
        0x000022e0:    00730018    ..s.    DCD    7536664
        0x000022e4:    9f01001f    ....    DCD    2667642911
        0x000022e8:    03e07f00    ....    DCD    65044224
        0x000022ec:    38700000    ..p8    DCD    946864128
        0x000022f0:    03001806    ....    DCD    50337798
        0x000022f4:    601c0092    ...`    DCD    1612447890
        0x000022f8:    1c003001    .0..    DCD    469774337
        0x000022fc:    00000e00    ....    DCD    3584
        0x00002300:    00000c00    ....    DCD    3072
        0x00002304:    c0030f00    ....    DCD    3221425920
        0x00002308:    00730018    ..s.    DCD    7536664
        0x0000230c:    de011c1e    ....    DCD    3724614686
        0x00002310:    03c06f00    .o..    DCD    62942976
        0x00002314:    3070000e    ..p0    DCD    812646414
        0x00002318:    01003807    .8..    DCD    16791559
        0x0000231c:    60080096    ...`    DCD    1611137174
        0x00002320:    0c00f001    ....    DCD    201388033
        0x00002324:    1f000e00    ....    DCD    520097280
        0x00002328:    101fcc0c    ....    DCD    270519308
        0x0000232c:    c0070f60    `...    DCD    3221688160
        0x00002330:    00e60038    8...    DCD    15073336
        0x00002334:    7c037e16    .~.|    DCD    2080603670
        0x00002338:    03806f00    .o..    DCD    58748672
        0x0000233c:    3070003f    ?.p0    DCD    812646463
        0x00002340:    00003807    .8..    DCD    14343
        0x00002344:    60000096    ...`    DCD    1610612886
        0x00002348:    0c00b001    ....    DCD    201371649
        0x0000234c:    3f000e00    ...?    DCD    1056968192
        0x00002350:    383fcf8d    ..?8    DCD    943705997
        0x00002354:    c0060b60    `...    DCD    3221621600
        0x00002358:    00c60030    0...    DCD    12976176
        0x0000235c:    f903fe07    ....    DCD    4177788423
        0x00002360:    03806c00    .l..    DCD    58747904
        0x00002364:    70308039    9.0p    DCD    1882226745
        0x00002368:    00003007    .0..    DCD    12295
        0x0000236c:    60000016    ...`    DCD    1610612758
        0x00002370:    0f003001    .0..    DCD    251670529
        0x00002374:    7b000cc0    ...{    DCD    2063600832
        0x00002378:    9833ff8f    ..3.    DCD    2553544591
        0x0000237c:    c0060be0    ....    DCD    3221621728
        0x00002380:    e0c70070    p...    DCD    3771138160
        0x00002384:    f907ee0f    ....    DCD    4178046479
        0x00002388:    07c06d00    .m..    DCD    130051328
        0x0000238c:    703880f9    ..8p    DCD    1882751225
        0x00002390:    00003007    .0..    DCD    12295
        0x00002394:    7c000036    6..|    DCD    2080374838
        0x00002398:    1f00f001    ....    DCD    520155137
        0x0000239c:    61000cc0    ...a    DCD    1627393216
        0x000023a0:    9c31ffcf    ..1.    DCD    2620522447
        0x000023a4:    c18e1bc0    ....    DCD    3247315904
        0x000023a8:    f08f01e0    ....    DCD    4035903968
        0x000023ac:    b907ee1f    ....    DCD    3104304671
        0x000023b0:    1f802d80    .-..    DCD    528493952
        0x000023b4:    703880ff    ..8p    DCD    1882751231
        0x000023b8:    00003007    .0..    DCD    12295
        0x000023bc:    fc30003f    ?.0.    DCD    4231004223
        0x000023c0:    7f00b001    ....    DCD    2130751489
        0x000023c4:    e1000ce0    ....    DCD    3774876896
        0x000023c8:    8c610cce    ..a.    DCD    2355170510
        0x000023cc:    c38c19c0    ....    DCD    3280738752
        0x000023d0:    f0be01c0    ....    DCD    4038984128
        0x000023d4:    0f0f6c7e    ~l..    DCD    252669054
        0x000023d8:    1f802b80    .+..    DCD    528493440
        0x000023dc:    701c80ff    ...p    DCD    1880916223
        0x000023e0:    01003003    .0..    DCD    16789507
        0x000023e4:    fcf38033    3...    DCD    4243816499
        0x000023e8:    ff013c01    .<..    DCD    4278270977
        0x000023ec:    c0000cc0    ....    DCD    3221228736
        0x000023f0:    8d610cce    ..a.    DCD    2371947726
        0x000023f4:    c38c1980    ....    DCD    3280738688
        0x000023f8:    60f801f0    ...`    DCD    1626866160
        0x000023fc:    cf067cff    .|..    DCD    3473308927
        0x00002400:    1f002a80    .*..    DCD    520104576
        0x00002404:    701c00ec    ...p    DCD    1880883436
        0x00002408:    03003007    .0..    DCD    50343943
        0x0000240c:    e0f781b3    ....    DCD    3774316979
        0x00002410:    cc07fe01    ....    DCD    3423075841
        0x00002414:    c0000c00    ....    DCD    3221228544
        0x00002418:    87610ccc    ..a.    DCD    2271284428
        0x0000241c:    c08c1980    ....    DCD    3230407040
        0x00002420:    60980370    p..`    DCD    1620575088
        0x00002424:    e0057c6f    o|..    DCD    3758455919
        0x00002428:    1b002800    .(..    DCD    452995072
        0x0000242c:    700e00ae    ...p    DCD    1879965870
        0x00002430:    0f003007    .0..    DCD    251670535
        0x00002434:    e0f7018e    ....    DCD    3774284174
        0x00002438:    0c02f003    ....    DCD    201519107
        0x0000243c:    c0000c00    ....    DCD    3221228544
        0x00002440:    877f0ccc    ....    DCD    2273250508
        0x00002444:    c0d8990f    ....    DCD    3235420431
        0x00002448:    60980138    8..`    DCD    1620574520
        0x0000244c:    6003780b    .x.`    DCD    1610840075
        0x00002450:    07e00700    ....    DCD    132122368
        0x00002454:    700e0020     ..p    DCD    1879965728
        0x00002458:    1f003007    .0..    DCD    520105991
        0x0000245c:    60f0011f    ...`    DCD    1626341663
        0x00002460:    0c00f00f    ....    DCD    201388047
        0x00002464:    c0000e00    ....    DCD    3221229056
        0x00002468:    877f0ccc    ....    DCD    2273250508
        0x0000246c:    c0d8980f    ....    DCD    3235420175
        0x00002470:    60ff0118    ...`    DCD    1627324696
        0x00002474:    fb030019    ....    DCD    4211277849
        0x00002478:    06e00f00    ....    DCD    115347200
        0x0000247c:    70070060    `..p    DCD    1879507040
        0x00002480:    1f003807    .8..    DCD    520108039
        0x00002484:    60200037    7. `    DCD    1612709943
        0x00002488:    0c00301f    .0..    DCD    201338911
        0x0000248c:    c0000e00    ....    DCD    3221229056
        0x00002490:    076c0ccc    ..l.    DCD    124521676
        0x00002494:    c0d8180f    ....    DCD    3235387407
        0x00002498:    60db0118    ...`    DCD    1624965400
        0x0000249c:    fb030018    ....    DCD    4211277848
        0x000024a0:    0e603f00    .?`.    DCD    241188608
        0x000024a4:    7007000e    ...p    DCD    1879506958
        0x000024a8:    13003806    .8..    DCD    318781446
        0x000024ac:    60240036    6.$`    DCD    1612972086
        0x000024b0:    0c00d802    ....    DCD    201381890
        0x000024b4:    c0000e00    ....    DCD    3221229056
        0x000024b8:    0f600ccc    ..`.    DCD    257952972
        0x000024bc:    c0f81800    ....    DCD    3237484544
        0x000024c0:    60db0118    ...`    DCD    1624965400
        0x000024c4:    5f03e039    9.._    DCD    1594089529
        0x000024c8:    1e603f00    .?`.    DCD    509624064
        0x000024cc:    3003003e    >..0    DCD    805503038
        0x000024d0:    03003806    .8..    DCD    50345990
        0x000024d4:    6024003e    >.$`    DCD    1612972094
        0x000024d8:    0c00dc06    ....    DCD    201382918
        0x000024dc:    c0000700    ....    DCD    3221227264
        0x000024e0:    0d600ccc    ..`.    DCD    224398540
        0x000024e4:    c0701880    ..p.    DCD    3228571776
        0x000024e8:    60990118    ...`    DCD    1620640024
        0x000024ec:    7c03f027    '..|    DCD    2080632871
        0x000024f0:    3e603f00    .?`>    DCD    1046494976
        0x000024f4:    3807007c    |..8    DCD    939982972
        0x000024f8:    03001c0e    ....    DCD    50338830
        0x000024fc:    606c009e    ..l`    DCD    1617690782
        0x00002500:    0c00fc06    ....    DCD    201391110
        0x00002504:    e0000700    ....    DCD    3758098176
        0x00002508:    1d601ccc    ..`.    DCD    492838092
        0x0000250c:    c0701880    ..p.    DCD    3228571776
        0x00002510:    60980138    8..`    DCD    1620574520
        0x00002514:    fc037006    .p..    DCD    4228083718
        0x00002518:    7a403fc0    .?@z    DCD    2051030976
        0x0000251c:    3807007c    |..8    DCD    939982972
        0x00002520:    03001c0c    ....    DCD    50338828
        0x00002524:    6068009e    ..h`    DCD    1617428638
        0x00002528:    0c00f607    ....    DCD    201389575
        0x0000252c:    61840300    ...a    DCD    1636041472
        0x00002530:    19701c8e    ..p.    DCD    426777742
        0x00002534:    e47018c0    ..p.    DCD    3832551616
        0x00002538:    60f80138    8..`    DCD    1626865976
        0x0000253c:    5803b006    ...X    DCD    1476636678
        0x00002540:    72e03fc0    .?.r    DCD    1927299008
        0x00002544:    1c060018    ....    DCD    470155288
        0x00002548:    03100e1c    ....    DCD    51383836
        0x0000254c:    6078008e    ..x`    DCD    1618477198
        0x00002550:    0c00c70f    ....    DCD    201377551
        0x00002554:    73ee0300    ...s    DCD    1944978176
        0x00002558:    98390c8e    ..9.    DCD    2553875598
        0x0000255c:    e77038c0    .8p.    DCD    3882891456
        0x00002560:    60f801f0    ...`    DCD    1626866160
        0x00002564:    5802b007    ...X    DCD    1476571143
        0x00002568:    22f83fc0    .?."    DCD    586694592
        0x0000256c:    1f7e001c    ..~.    DCD    528351260
        0x00002570:    03f80f78    x...    DCD    66588536
        0x00002574:    6078008f    ..x`    DCD    1618477199
        0x00002578:    0c80c718    ....    DCD    209766168
        0x0000257c:    7ffe0100    ....    DCD    2147352832
        0x00002580:    b83f0e8e    ..?.    DCD    3091140238
        0x00002584:    e72038e0    .8 .    DCD    3877648608
        0x00002588:    e0fc00e0    ....    DCD    3774611680
        0x0000258c:    58023007    .0.X    DCD    1476538375
        0x00002590:    06f83fc0    .?..    DCD    116932544
        0x00002594:    0f7c801f    ..|.    DCD    259817503
        0x00002598:    03f807f8    ....    DCD    66586616
        0x0000259c:    6030001f    ..0`    DCD    1613758495
        0x000025a0:    0cc0d338    8...    DCD    213963576
        0x000025a4:    3ffc0000    ...?    DCD    1073479680
        0x000025a8:    301f0e0e    ...0    DCD    807341582
        0x000025ac:    e7003860    `8..    DCD    3875551328
        0x000025b0:    c0be00e0    ....    DCD    3233677536
        0x000025b4:    58023006    .0.X    DCD    1476538374
        0x000025b8:    0ef87fc0    ....    DCD    251166656
        0x000025bc:    077880ff    ..x.    DCD    125337855
        0x000025c0:    03f003e0    ....    DCD    66061280
        0x000025c4:    6030c079    y.0`    DCD    1613807737
        0x000025c8:    1c00f831    1...    DCD    469825585
        0x000025cc:    0c380000    ..8.    DCD    204996608
        0x000025d0:    000e0600    ....    DCD    919040
        0x000025d4:    03000000    ....    DCD    50331648
        0x000025d8:    c0130080    ....    DCD    3222470784
        0x000025dc:    e8033006    .0..    DCD    3892523014
        0x000025e0:    0f08f0c1    ....    DCD    252244161
        0x000025e4:    013080f1    ..0.    DCD    19955953
        0x000025e8:    02e00080    ....    DCD    48234624
        0x000025ec:    6030f071    q.0`    DCD    1613820017
        0x000025f0:    f800f807    ....    DCD    4160813063
        0x000025f4:    00000000    ....    DCD    0
        0x000025f8:    00000000    ....    DCD    0
        0x000025fc:    00000000    ....    DCD    0
        0x00002600:    c0010000    ....    DCD    3221291008
        0x00002604:    ef02b007    ....    DCD    4009930759
        0x00002608:    0600c0c1    ....    DCD    100712641
        0x0000260c:    00000080    ....    DCD    128
        0x00002610:    02000000    ....    DCD    33554432
        0x00002614:    6000f801    ...`    DCD    1610676225
        0x00002618:    78000007    ...x    DCD    2013265927
        0x0000261c:    00000000    ....    DCD    0
        0x00002620:    00000000    ....    DCD    0
        0x00002624:    00000000    ....    DCD    0
        0x00002628:    c0000000    ....    DCD    3221225472
        0x0000262c:    ef00f007    ....    DCD    4009816071
        0x00002630:    020000c0    ....    DCD    33554624
        0x00002634:    00000000    ....    DCD    0
        0x00002638:    00000000    ....    DCD    0
        0x0000263c:    6000f800    ...`    DCD    1610676224
        0x00002640:    18000000    ....    DCD    402653184
        0x00002644:    00000000    ....    DCD    0
        0x00002648:    00000000    ....    DCD    0
        0x0000264c:    00000000    ....    DCD    0
        0x00002650:    00000000    ....    DCD    0
        0x00002654:    60007002    .p.`    DCD    1610641410
        0x00002658:    00000000    ....    DCD    0
        0x0000265c:    00000000    ....    DCD    0
        0x00002660:    00000000    ....    DCD    0
        0x00002664:    60000000    ...`    DCD    1610612736
        0x00002668:    00000000    ....    DCD    0
        0x0000266c:    00000000    ....    DCD    0
        0x00002670:    00000000    ....    DCD    0
        0x00002674:    00000000    ....    DCD    0
        0x00002678:    00000000    ....    DCD    0
        0x0000267c:    00007000    .p..    DCD    28672
        0x00002680:    00000000    ....    DCD    0
        0x00002684:    00000000    ....    DCD    0
        0x00002688:    00000000    ....    DCD    0
        0x0000268c:    60000000    ...`    DCD    1610612736
    gImage_78
        0x00002690:    00000000    ....    DCD    0
        0x00002694:    00000000    ....    DCD    0
        0x00002698:    00000000    ....    DCD    0
        0x0000269c:    ffff1f00    ....    DCD    4294909696
        0x000026a0:    000000f8    ....    DCD    248
        0x000026a4:    00000000    ....    DCD    0
        0x000026a8:    00000000    ....    DCD    0
        0x000026ac:    00000000    ....    DCD    0
        0x000026b0:    00000000    ....    DCD    0
        0x000026b4:    00000000    ....    DCD    0
        0x000026b8:    ff0f0000    ....    DCD    4279173120
        0x000026bc:    f0ffffff    ....    DCD    4043309055
        0x000026c0:    00000000    ....    DCD    0
        0x000026c4:    00000000    ....    DCD    0
        0x000026c8:    00000000    ....    DCD    0
        0x000026cc:    00000000    ....    DCD    0
        0x000026d0:    00000000    ....    DCD    0
        0x000026d4:    01000000    ....    DCD    16777216
        0x000026d8:    ffffffff    ....    DCD    4294967295
        0x000026dc:    0080ffff    ....    DCD    8454143
        0x000026e0:    00000000    ....    DCD    0
        0x000026e4:    00000000    ....    DCD    0
        0x000026e8:    00000000    ....    DCD    0
        0x000026ec:    00000000    ....    DCD    0
        0x000026f0:    00000000    ....    DCD    0
        0x000026f4:    ffff1f00    ....    DCD    4294909696
        0x000026f8:    ffffffff    ....    DCD    4294967295
        0x000026fc:    000000f8    ....    DCD    248
        0x00002700:    00000000    ....    DCD    0
        0x00002704:    00000000    ....    DCD    0
        0x00002708:    00000000    ....    DCD    0
        0x0000270c:    00000000    ....    DCD    0
        0x00002710:    ff010000    ....    DCD    4278255616
        0x00002714:    ffffffff    ....    DCD    4294967295
        0x00002718:    80ffffff    ....    DCD    2164260863
        0x0000271c:    00000000    ....    DCD    0
        0x00002720:    00000000    ....    DCD    0
        0x00002724:    00000000    ....    DCD    0
        0x00002728:    00000000    ....    DCD    0
        0x0000272c:    00000000    ....    DCD    0
        0x00002730:    ffffff0f    ....    DCD    4294967055
        0x00002734:    ffffffff    ....    DCD    4294967295
        0x00002738:    0000f0ff    ....    DCD    61695
        0x0000273c:    00000000    ....    DCD    0
        0x00002740:    00000000    ....    DCD    0
        0x00002744:    00000000    ....    DCD    0
        0x00002748:    00000000    ....    DCD    0
        0x0000274c:    ff7f0000    ....    DCD    4286513152
        0x00002750:    ffffffff    ....    DCD    4294967295
        0x00002754:    feffffff    ....    DCD    4278190079
        0x00002758:    00000000    ....    DCD    0
        0x0000275c:    00000000    ....    DCD    0
        0x00002760:    00000000    ....    DCD    0
        0x00002764:    00000000    ....    DCD    0
        0x00002768:    03000000    ....    DCD    50331648
        0x0000276c:    ffffffff    ....    DCD    4294967295
        0x00002770:    ffffffff    ....    DCD    4294967295
        0x00002774:    00c0ffff    ....    DCD    12648447
        0x00002778:    00000000    ....    DCD    0
        0x0000277c:    00000000    ....    DCD    0
        0x00002780:    00000000    ....    DCD    0
        0x00002784:    00000000    ....    DCD    0
        0x00002788:    ffff1f00    ....    DCD    4294909696
        0x0000278c:    0000fcff    ....    DCD    64767
        0x00002790:    ffffff3f    ?...    DCD    4294967103
        0x00002794:    000000f8    ....    DCD    248
        0x00002798:    00000000    ....    DCD    0
        0x0000279c:    00000000    ....    DCD    0
        0x000027a0:    00000000    ....    DCD    0
        0x000027a4:    7f000000    ....    DCD    2130706432
        0x000027a8:    00fcffff    ....    DCD    16580607
        0x000027ac:    3f000000    ...?    DCD    1056964608
        0x000027b0:    00feffff    ....    DCD    16711679
        0x000027b4:    00000000    ....    DCD    0
        0x000027b8:    00000000    ....    DCD    0
        0x000027bc:    00000000    ....    DCD    0
        0x000027c0:    00000000    ....    DCD    0
        0x000027c4:    ffffff01    ....    DCD    4294967041
        0x000027c8:    00000080    ....    DCD    128
        0x000027cc:    ffff0100    ....    DCD    4294902016
        0x000027d0:    000080ff    ....    DCD    33023
        0x000027d4:    00000000    ....    DCD    0
        0x000027d8:    00000000    ....    DCD    0
        0x000027dc:    00000000    ....    DCD    0
        0x000027e0:    ff0f0000    ....    DCD    4279173120
        0x000027e4:    0000f8ff    ....    DCD    63743
        0x000027e8:    00000000    ....    DCD    0
        0x000027ec:    f0ffff0f    ....    DCD    4043308815
        0x000027f0:    00000000    ....    DCD    0
        0x000027f4:    00000000    ....    DCD    0
        0x000027f8:    00000000    ....    DCD    0
        0x000027fc:    00000000    ....    DCD    0
        0x00002800:    80ffff3f    ?...    DCD    2164260671
        0x00002804:    00000000    ....    DCD    0
        0x00002808:    ff010000    ....    DCD    4278255616
        0x0000280c:    0000fcff    ....    DCD    64767
        0x00002810:    00000000    ....    DCD    0
        0x00002814:    00000000    ....    DCD    0
        0x00002818:    00000000    ....    DCD    0
        0x0000281c:    ff7f0000    ....    DCD    4286513152
        0x00002820:    000000fc    ....    DCD    252
        0x00002824:    00000000    ....    DCD    0
        0x00002828:    ffff3f00    .?..    DCD    4294917888
        0x0000282c:    00000000    ....    DCD    0
        0x00002830:    00000000    ....    DCD    0
        0x00002834:    00000000    ....    DCD    0
        0x00002838:    01000000    ....    DCD    16777216
        0x0000283c:    00e0ffff    ....    DCD    14745599
        0x00002840:    00000000    ....    DCD    0
        0x00002844:    07000000    ....    DCD    117440512
        0x00002848:    0080ffff    ....    DCD    8454143
        0x0000284c:    00000000    ....    DCD    0
        0x00002850:    00000000    ....    DCD    0
        0x00002854:    00000000    ....    DCD    0
        0x00002858:    ffff0700    ....    DCD    4294903552
        0x0000285c:    00000000    ....    DCD    0
        0x00002860:    00000000    ....    DCD    0
        0x00002864:    ffff0000    ....    DCD    4294901760
        0x00002868:    000000e0    ....    DCD    224
        0x0000286c:    00000000    ....    DCD    0
        0x00002870:    00000000    ....    DCD    0
        0x00002874:    1f000000    ....    DCD    520093696
        0x00002878:    0000fcff    ....    DCD    64767
        0x0000287c:    00000000    ....    DCD    0
        0x00002880:    00000000    ....    DCD    0
        0x00002884:    00f8ff1f    ....    DCD    16318239
        0x00002888:    00000000    ....    DCD    0
        0x0000288c:    00000000    ....    DCD    0
        0x00002890:    00000000    ....    DCD    0
        0x00002894:    e0ff7f00    ....    DCD    3774840576
        0x00002898:    00000000    ....    DCD    0
        0x0000289c:    00000000    ....    DCD    0
        0x000028a0:    ff070000    ....    DCD    4278648832
        0x000028a4:    000000fe    ....    DCD    254
        0x000028a8:    00000000    ....    DCD    0
        0x000028ac:    00000000    ....    DCD    0
        0x000028b0:    ff000000    ....    DCD    4278190080
        0x000028b4:    000080ff    ....    DCD    33023
        0x000028b8:    00000020     ...    DCD    32
        0x000028bc:    00000000    ....    DCD    0
        0x000028c0:    00ffff01    ....    DCD    16776961
        0x000028c4:    00000000    ....    DCD    0
        0x000028c8:    00000000    ....    DCD    0
        0x000028cc:    00000000    ....    DCD    0
        0x000028d0:    00feff03    ....    DCD    16711427
        0x000028d4:    00700000    ..p.    DCD    7340032
        0x000028d8:    00000000    ....    DCD    0
        0x000028dc:    7f000000    ....    DCD    2130706432
        0x000028e0:    0000c0ff    ....    DCD    49407
        0x000028e4:    00000000    ....    DCD    0
        0x000028e8:    00000000    ....    DCD    0
        0x000028ec:    ff070000    ....    DCD    4278648832
        0x000028f0:    000000f8    ....    DCD    248
        0x000028f4:    000000f0    ....    DCD    240
        0x000028f8:    00000000    ....    DCD    0
        0x000028fc:    e0ff1f00    ....    DCD    3774816000
        0x00002900:    00000000    ....    DCD    0
        0x00002904:    00000000    ....    DCD    0
        0x00002908:    00000000    ....    DCD    0
        0x0000290c:    00e0ff1f    ....    DCD    14745375
        0x00002910:    00e00000    ....    DCD    14680064
        0x00002914:    00000000    ....    DCD    0
        0x00002918:    07000000    ....    DCD    117440512
        0x0000291c:    0000f8ff    ....    DCD    63743
        0x00002920:    00000000    ....    DCD    0
        0x00002924:    00000000    ....    DCD    0
        0x00002928:    ff3f0000    ..?.    DCD    4282318848
        0x0000292c:    01000080    ....    DCD    16777344
        0x00002930:    000000e0    ....    DCD    224
        0x00002934:    00000000    ....    DCD    0
        0x00002938:    fcff0100    ....    DCD    4244570368
        0x0000293c:    00000000    ....    DCD    0
        0x00002940:    00000000    ....    DCD    0
        0x00002944:    00000000    ....    DCD    0
        0x00002948:    0000fe7f    ....    DCD    65151
        0x0000294c:    00c04100    .A..    DCD    12599552
        0x00002950:    00000000    ....    DCD    0
        0x00002954:    00000000    ....    DCD    0
        0x00002958:    0000fe7f    ....    DCD    65151
        0x0000295c:    00000000    ....    DCD    0
        0x00002960:    00000000    ....    DCD    0
        0x00002964:    fcff0100    ....    DCD    4244570368
        0x00002968:    e3000000    ....    DCD    3808428032
        0x0000296c:    00000040    @...    DCD    64
        0x00002970:    00f80000    ....    DCD    16252928
        0x00002974:    ff3f0000    ..?.    DCD    4282318848
        0x00002978:    00000080    ....    DCD    128
        0x0000297c:    00000000    ....    DCD    0
        0x00002980:    03000000    ....    DCD    50331648
        0x00002984:    0000f0ff    ....    DCD    61695
        0x00002988:    0060a601    ..`.    DCD    6333953
        0x0000298c:    03000000    ....    DCD    50331648
        0x00002990:    000000fc    ....    DCD    252
        0x00002994:    00c0ff0f    ....    DCD    12648207
        0x00002998:    00000000    ....    DCD    0
        0x0000299c:    00000000    ....    DCD    0
        0x000029a0:    e0ff0700    ....    DCD    3774809856
        0x000029a4:    24070000    ...$    DCD    604438528
        0x000029a8:    00000060    `...    DCD    96
        0x000029ac:    007c0100    ..|.    DCD    8126720
        0x000029b0:    ff070000    ....    DCD    4278648832
        0x000029b4:    000000e0    ....    DCD    224
        0x000029b8:    00000000    ....    DCD    0
        0x000029bc:    1f000000    ....    DCD    520093696
        0x000029c0:    000080ff    ....    DCD    33023
        0x000029c4:    00602000    . `.    DCD    6299648
        0x000029c8:    00000000    ....    DCD    0
        0x000029cc:    000000f8    ....    DCD    248
        0x000029d0:    00f8ff01    ....    DCD    16318209
        0x000029d4:    00000000    ....    DCD    0
        0x000029d8:    00000000    ....    DCD    0
        0x000029dc:    00ff3f00    .?..    DCD    16727808
        0x000029e0:    60000000    ...`    DCD    1610612736
        0x000029e4:    00000020     ...    DCD    32
        0x000029e8:    00e00100    ....    DCD    14680320
        0x000029ec:    ff000000    ....    DCD    4278190080
        0x000029f0:    000000fc    ....    DCD    252
        0x000029f4:    00000000    ....    DCD    0
        0x000029f8:    7f000000    ....    DCD    2130706432
        0x000029fc:    000000fc    ....    DCD    252
        0x00002a00:    00206400    .d .    DCD    2122752
        0x00002a04:    03000000    ....    DCD    50331648
        0x00002a08:    00000080    ....    DCD    128
        0x00002a0c:    00fe3f00    .?..    DCD    16662272
        0x00002a10:    00000000    ....    DCD    0
        0x00002a14:    00000000    ....    DCD    0
        0x00002a18:    00f8ff00    ....    DCD    16318208
        0x00002a1c:    76000000    ...v    DCD    1979711488
        0x00002a20:    00000030    0...    DCD    48
        0x00002a24:    00000600    ....    DCD    1536
        0x00002a28:    1f000000    ....    DCD    520093696
        0x00002a2c:    000000ff    ....    DCD    255
        0x00002a30:    00000000    ....    DCD    0
        0x00002a34:    ff010000    ....    DCD    4278255616
        0x00002a38:    000000f0    ....    DCD    240
        0x00002a3c:    00183600    .6..    DCD    1586688
        0x00002a40:    1f000000    ....    DCD    520093696
        0x00002a44:    000000c0    ....    DCD    192
        0x00002a48:    80ff0f00    ....    DCD    2164199168
        0x00002a4c:    00000000    ....    DCD    0
        0x00002a50:    00000000    ....    DCD    0
        0x00002a54:    00c0ff03    ....    DCD    12648195
        0x00002a58:    34000000    ...4    DCD    872415232
        0x00002a5c:    00000018    ....    DCD    24
        0x00002a60:    00e0ff00    ....    DCD    14745344
        0x00002a64:    03000000    ....    DCD    50331648
        0x00002a68:    0000c0ff    ....    DCD    49407
        0x00002a6c:    00000000    ....    DCD    0
        0x00002a70:    ff070000    ....    DCD    4278648832
        0x00002a74:    00000080    ....    DCD    128
        0x00002a78:    00093c00    .<..    DCD    605184
        0x00002a7c:    ff010000    ....    DCD    4278255616
        0x00002a80:    000000e0    ....    DCD    224
        0x00002a84:    e0ff0100    ....    DCD    3774808320
        0x00002a88:    00000000    ....    DCD    0
        0x00002a8c:    00000000    ....    DCD    0
        0x00002a90:    0000ff0f    ....    DCD    65295
        0x00002a94:    3c000000    ...<    DCD    1006632960
        0x00002a98:    0000000f    ....    DCD    15
        0x00002a9c:    0000ff00    ....    DCD    65280
        0x00002aa0:    00000000    ....    DCD    0
        0x00002aa4:    0000f0ff    ....    DCD    61695
        0x00002aa8:    00000000    ....    DCD    0
        0x00002aac:    fe1f0000    ....    DCD    4263444480
        0x00002ab0:    00000000    ....    DCD    0
        0x00002ab4:    000e3c00    .<..    DCD    932864
        0x00002ab8:    60000000    ...`    DCD    1610612736
        0x00002abc:    00000000    ....    DCD    0
        0x00002ac0:    f87f0000    ....    DCD    4169072640
        0x00002ac4:    00000000    ....    DCD    0
        0x00002ac8:    00000000    ....    DCD    0
        0x00002acc:    0000fc3f    ?...    DCD    64575
        0x00002ad0:    18000000    ....    DCD    402653184
        0x00002ad4:    0000000c    ....    DCD    12
        0x00002ad8:    00000000    ....    DCD    0
        0x00002adc:    00000000    ....    DCD    0
        0x00002ae0:    0000fc1f    ....    DCD    64543
        0x00002ae4:    00000000    ....    DCD    0
        0x00002ae8:    f07f0000    ....    DCD    4034854912
        0x00002aec:    00000000    ....    DCD    0
        0x00002af0:    00003800    .8..    DCD    14336
        0x00002af4:    00000000    ....    DCD    0
        0x00002af8:    00000000    ....    DCD    0
        0x00002afc:    fe0f0000    ....    DCD    4262395904
        0x00002b00:    00000000    ....    DCD    0
        0x00002b04:    00000000    ....    DCD    0
        0x00002b08:    0000e0ff    ....    DCD    57599
        0x00002b0c:    38000000    ...8    DCD    939524096
        0x00002b10:    00000000    ....    DCD    0
        0x00002b14:    00000000    ....    DCD    0
        0x00002b18:    00000000    ....    DCD    0
        0x00002b1c:    0000ff07    ....    DCD    65287
        0x00002b20:    00000000    ....    DCD    0
        0x00002b24:    c0ff0100    ....    DCD    3237937408
        0x00002b28:    00000000    ....    DCD    0
        0x00002b2c:    00003800    .8..    DCD    14336
        0x00002b30:    00000000    ....    DCD    0
        0x00002b34:    00000000    ....    DCD    0
        0x00002b38:    ff030000    ....    DCD    4278386688
        0x00002b3c:    00000080    ....    DCD    128
        0x00002b40:    03000000    ....    DCD    50331648
        0x00002b44:    000080ff    ....    DCD    33023
        0x00002b48:    30000000    ...0    DCD    805306368
        0x00002b4c:    00000000    ....    DCD    0
        0x00002b50:    00000000    ....    DCD    0
        0x00002b54:    00000000    ....    DCD    0
        0x00002b58:    00c0ff01    ....    DCD    12648193
        0x00002b5c:    00000000    ....    DCD    0
        0x00002b60:    00ff0700    ....    DCD    16713472
        0x00002b64:    00000000    ....    DCD    0
        0x00002b68:    00001000    ....    DCD    4096
        0x00002b6c:    00000000    ....    DCD    0
        0x00002b70:    00000000    ....    DCD    0
        0x00002b74:    ff000000    ....    DCD    4278190080
        0x00002b78:    000000e0    ....    DCD    224
        0x00002b7c:    0f000000    ....    DCD    251658240
        0x00002b80:    000600fe    ....    DCD    393470
        0x00002b84:    00000000    ....    DCD    0
        0x00002b88:    00000000    ....    DCD    0
        0x00002b8c:    00000000    ....    DCD    0
        0x00002b90:    00000000    ....    DCD    0
        0x00002b94:    00f07f00    ....    DCD    15761152
        0x00002b98:    00000000    ....    DCD    0
        0x00002b9c:    00fc0f00    ....    DCD    16518912
        0x00002ba0:    00000007    ....    DCD    7
        0x00002ba4:    00000000    ....    DCD    0
        0x00002ba8:    00000000    ....    DCD    0
        0x00002bac:    00000000    ....    DCD    0
        0x00002bb0:    3f000000    ...?    DCD    1056964608
        0x00002bb4:    000000f8    ....    DCD    248
        0x00002bb8:    1f000000    ....    DCD    520093696
        0x00002bbc:    000d00f8    ....    DCD    852216
        0x00002bc0:    00000000    ....    DCD    0
        0x00002bc4:    ffff0300    ....    DCD    4294902528
        0x00002bc8:    000000c0    ....    DCD    192
        0x00002bcc:    00000000    ....    DCD    0
        0x00002bd0:    00f81f00    ....    DCD    16260864
        0x00002bd4:    00000000    ....    DCD    0
        0x00002bd8:    00f83f00    .?..    DCD    16269056
        0x00002bdc:    0000800d    ....    DCD    32781
        0x00002be0:    ff000000    ....    DCD    4278190080
        0x00002be4:    00ffffff    ....    DCD    16777215
        0x00002be8:    00000000    ....    DCD    0
        0x00002bec:    0f000000    ....    DCD    251658240
        0x00002bf0:    000000fc    ....    DCD    252
        0x00002bf4:    7f000000    ....    DCD    2130706432
        0x00002bf8:    c0fc00f0    ....    DCD    3237740784
        0x00002bfc:    00000000    ....    DCD    0
        0x00002c00:    ffffff0f    ....    DCD    4294967055
        0x00002c04:    0000f0ff    ....    DCD    61695
        0x00002c08:    00000000    ....    DCD    0
        0x00002c0c:    00fe0f20     ...    DCD    16650016
        0x00002c10:    00000000    ....    DCD    0
        0x00002c14:    00e0ff00    ....    DCD    14745344
        0x00002c18:    0000407c    |@..    DCD    16508
        0x00002c1c:    ff7f0000    ....    DCD    4286513152
        0x00002c20:    feffffff    ....    DCD    4278190079
        0x00002c24:    00000000    ....    DCD    0
        0x00002c28:    07600000    ..`.    DCD    123731968
        0x00002c2c:    000000ff    ....    DCD    255
        0x00002c30:    ff000000    ....    DCD    4278190080
        0x00002c34:    603c00c0    ..<`    DCD    1614545088
        0x00002c38:    03000000    ....    DCD    50331648
        0x00002c3c:    ffffffff    ....    DCD    4294967295
        0x00002c40:    00c0ffff    ....    DCD    12648447
        0x00002c44:    80010000    ....    DCD    2147549184
        0x00002c48:    00ff0360    `...    DCD    16712544
        0x00002c4c:    00000000    ....    DCD    0
        0x00002c50:    0080ff01    ....    DCD    8453889
        0x00002c54:    0000301e    .0..    DCD    12318
        0x00002c58:    ffff1f00    ....    DCD    4294909696
        0x00002c5c:    ffffffff    ....    DCD    4294967295
        0x00002c60:    000000f8    ....    DCD    248
        0x00002c64:    0160c000    ..`.    DCD    23117824
        0x00002c68:    000080ff    ....    DCD    33023
        0x00002c6c:    ff030000    ....    DCD    4278386688
        0x00002c70:    581e0000    ...X    DCD    1478361088
        0x00002c74:    7f000000    ....    DCD    2130706432
        0x00002c78:    ffffffff    ....    DCD    4294967295
        0x00002c7c:    00feffff    ....    DCD    16711679
        0x00002c80:    e0000000    ....    DCD    3758096384
        0x00002c84:    c0ff0060    `...    DCD    3237937248
        0x00002c88:    00000000    ....    DCD    0
        0x00002c8c:    0000ff07    ....    DCD    65287
        0x00002c90:    0000cc3e    >...    DCD    52286
        0x00002c94:    ffffff01    ....    DCD    4294967041
        0x00002c98:    ffffffff    ....    DCD    4294967295
        0x00002c9c:    060080ff    ....    DCD    100696319
        0x00002ca0:    00e07900    .y..    DCD    14711040
        0x00002ca4:    0000e07f    ....    DCD    57471
        0x00002ca8:    fe070000    ....    DCD    4261871616
        0x00002cac:    c63d0000    ..=.    DCD    3325886464
        0x00002cb0:    ff070000    ....    DCD    4278648832
        0x00002cb4:    ffffffff    ....    DCD    4294967295
        0x00002cb8:    e0ffffff    ....    DCD    3774873599
        0x00002cbc:    ffff0700    ....    DCD    4294903552
        0x00002cc0:    e07f00c0    ....    DCD    3766419648
        0x00002cc4:    00000000    ....    DCD    0
        0x00002cc8:    0000fc0f    ....    DCD    64527
        0x00002ccc:    0000e325    %...    DCD    58149
        0x00002cd0:    ffffff1f    ....    DCD    4294967071
        0x00002cd4:    ffffffff    ....    DCD    4294967295
        0x00002cd8:    0000f8ff    ....    DCD    63743
        0x00002cdc:    00e0ffff    ....    DCD    14745599
        0x00002ce0:    0000f03f    ?...    DCD    61503
        0x00002ce4:    f81f0000    ....    DCD    4162781184
        0x00002ce8:    63060000    ...c    DCD    1661337600
        0x00002cec:    ff7f0080    ....    DCD    4286513280
        0x00002cf0:    ffffffff    ....    DCD    4294967295
        0x00002cf4:    feffffff    ....    DCD    4278190079
        0x00002cf8:    03000000    ....    DCD    50331648
        0x00002cfc:    f81f00f0    ....    DCD    4162781424
        0x00002d00:    00000000    ....    DCD    0
        0x00002d04:    0000f81f    ....    DCD    63519
        0x00002d08:    00806f06    .o..    DCD    8417030
        0x00002d0c:    ffffffff    ....    DCD    4294967295
        0x00002d10:    ffffffff    ....    DCD    4294967295
        0x00002d14:    0000ffff    ....    DCD    65535
        0x00002d18:    00700000    ..p.    DCD    7340032
        0x00002d1c:    0000f80f    ....    DCD    63503
        0x00002d20:    f03f0000    ..?.    DCD    4030660608
        0x00002d24:    1c060000    ....    DCD    470155264
        0x00002d28:    ffff0300    ....    DCD    4294902528
        0x00002d2c:    ffffffff    ....    DCD    4294967295
        0x00002d30:    ffffffff    ....    DCD    4294967295
        0x00002d34:    000000c0    ....    DCD    192
        0x00002d38:    fc0f0000    ....    DCD    4228841472
        0x00002d3c:    00000000    ....    DCD    0
        0x00002d40:    0000e03f    ?...    DCD    57407
        0x00002d44:    07000004    ....    DCD    117440516
        0x00002d48:    ffffffff    ....    DCD    4294967295
        0x00002d4c:    fffffffe    ....    DCD    4294967294
        0x00002d50:    00e0ffff    ....    DCD    14745599
        0x00002d54:    00000000    ....    DCD    0
        0x00002d58:    0000fe07    ....    DCD    65031
        0x00002d5c:    e07f0000    ....    DCD    3766419456
        0x00002d60:    00040000    ....    DCD    262144
        0x00002d64:    ffff1f00    ....    DCD    4294909696
        0x00002d68:    fffcffff    ....    DCD    4294770687
        0x00002d6c:    ffffffff    ....    DCD    4294967295
        0x00002d70:    100000f8    ....    DCD    268435704
        0x00002d74:    fe030000    ....    DCD    4261609472
        0x00002d78:    00000000    ....    DCD    0
        0x00002d7c:    0000c0ff    ....    DCD    49407
        0x00002d80:    3f000004    ...?    DCD    1056964612
        0x00002d84:    ffffffff    ....    DCD    4294967295
        0x00002d88:    fffffff9    ....    DCD    4294967289
        0x00002d8c:    00fcffff    ....    DCD    16580607
        0x00002d90:    00001800    ....    DCD    6144
        0x00002d94:    0000ff03    ....    DCD    65283
        0x00002d98:    80ff0000    ....    DCD    2164195328
        0x00002d9c:    00000000    ....    DCD    0
        0x00002da0:    ffff7f00    ....    DCD    4294934272
        0x00002da4:    fff1ffff    ....    DCD    4294049791
        0x00002da8:    ffffffff    ....    DCD    4294967295
        0x00002dac:    180000fe    ....    DCD    402653438
        0x00002db0:    ff010000    ....    DCD    4278255616
        0x00002db4:    01000000    ....    DCD    16777216
        0x00002db8:    000080ff    ....    DCD    33023
        0x00002dbc:    ff010000    ....    DCD    4278255616
        0x00002dc0:    ffffffff    ....    DCD    4294967295
        0x00002dc4:    ffffffe3    ....    DCD    4294967267
        0x00002dc8:    80ffffff    ....    DCD    2164260863
        0x00002dcc:    0000f801    ....    DCD    63489
        0x00002dd0:    0080ff01    ....    DCD    8453889
        0x00002dd4:    00ff0100    ....    DCD    16711936
        0x00002dd8:    00060000    ....    DCD    393216
        0x00002ddc:    ffffff03    ....    DCD    4294967043
        0x00002de0:    ffc3ffff    ....    DCD    4291035135
        0x00002de4:    ffffffff    ....    DCD    4294967295
        0x00002de8:    f801c0ff    ....    DCD    4160864511
        0x00002dec:    ff000000    ....    DCD    4278190080
        0x00002df0:    030000c0    ....    DCD    50331840
        0x00002df4:    000000fe    ....    DCD    254
        0x00002df8:    ff078003    ....    DCD    4278681603
        0x00002dfc:    ffffffff    ....    DCD    4294967295
        0x00002e00:    ffffff83    ....    DCD    4294967171
        0x00002e04:    e0ffffff    ....    DCD    3774873599
        0x00002e08:    00007000    .p..    DCD    28672
        0x00002e0c:    00c07f00    ....    DCD    12615424
        0x00002e10:    00fe0300    ....    DCD    16646912
        0x00002e14:    80010000    ....    DCD    2147549184
        0x00002e18:    ffffff0f    ....    DCD    4294967055
        0x00002e1c:    ff83ffff    ....    DCD    4286840831
        0x00002e20:    ffffffff    ....    DCD    4294967295
        0x00002e24:    3000f0ff    ...0    DCD    805368063
        0x00002e28:    7f000000    ....    DCD    2130706432
        0x00002e2c:    070000e0    ....    DCD    117440736
        0x00002e30:    000000fc    ....    DCD    252
        0x00002e34:    ff1f0000    ....    DCD    4280221696
        0x00002e38:    ffffffff    ....    DCD    4294967295
        0x00002e3c:    ffffff03    ....    DCD    4294967043
        0x00002e40:    f8ffffff    ....    DCD    4177526783
        0x00002e44:    00000000    ....    DCD    0
        0x00002e48:    00e03f00    .?..    DCD    14696192
        0x00002e4c:    00fc0700    ....    DCD    16516864
        0x00002e50:    00000000    ....    DCD    0
        0x00002e54:    ffffff3f    ?...    DCD    4294967103
        0x00002e58:    ff03ffff    ....    DCD    4278452223
        0x00002e5c:    ffffffff    ....    DCD    4294967295
        0x00002e60:    0000fcff    ....    DCD    64767
        0x00002e64:    3f000000    ...?    DCD    1056964608
        0x00002e68:    0f0000f0    ....    DCD    251658480
        0x00002e6c:    000000f8    ....    DCD    248
        0x00002e70:    ff7f0000    ....    DCD    4286513152
        0x00002e74:    ffffffff    ....    DCD    4294967295
        0x00002e78:    ffffff03    ....    DCD    4294967043
        0x00002e7c:    feffffff    ....    DCD    4278190079
        0x00002e80:    00000000    ....    DCD    0
        0x00002e84:    00f01f00    ....    DCD    15736576
        0x00002e88:    00f80f00    ....    DCD    16256768
        0x00002e8c:    00000000    ....    DCD    0
        0x00002e90:    ffffffff    ....    DCD    4294967295
        0x00002e94:    ff01ffff    ....    DCD    4278321151
        0x00002e98:    ffffffff    ....    DCD    4294967295
        0x00002e9c:    0000ffff    ....    DCD    65535
        0x00002ea0:    1f000000    ....    DCD    520093696
        0x00002ea4:    1f0000f8    ....    DCD    520093944
        0x00002ea8:    000000f0    ....    DCD    240
        0x00002eac:    ffff0100    ....    DCD    4294902016
        0x00002eb0:    feffffff    ....    DCD    4278190079
        0x00002eb4:    ffffff01    ....    DCD    4294967041
        0x00002eb8:    ffffffff    ....    DCD    4294967295
        0x00002ebc:    00000080    ....    DCD    128
        0x00002ec0:    00f80f00    ....    DCD    16256768
        0x00002ec4:    00f01f00    ....    DCD    15736576
        0x00002ec8:    03000000    ....    DCD    50331648
        0x00002ecc:    ffffffff    ....    DCD    4294967295
        0x00002ed0:    ff00feff    ....    DCD    4278255359
        0x00002ed4:    ffffffff    ....    DCD    4294967295
        0x00002ed8:    00c0ffff    ....    DCD    12648447
        0x00002edc:    0f000000    ....    DCD    251658240
        0x00002ee0:    3f0000fc    ...?    DCD    1056964860
        0x00002ee4:    000000e0    ....    DCD    224
        0x00002ee8:    ffff0700    ....    DCD    4294903552
        0x00002eec:    ffffffff    ....    DCD    4294967295
        0x00002ef0:    ffffff00    ....    DCD    4294967040
        0x00002ef4:    ffffffff    ....    DCD    4294967295
        0x00002ef8:    000000e0    ....    DCD    224
        0x00002efc:    00fc0700    ....    DCD    16516864
        0x00002f00:    00e03f00    .?..    DCD    14696192
        0x00002f04:    07000000    ....    DCD    117440512
        0x00002f08:    ffffffff    ....    DCD    4294967295
        0x00002f0c:    7f00ffff    ....    DCD    2130771967
        0x00002f10:    ffffffff    ....    DCD    4294967295
        0x00002f14:    00e0ffff    ....    DCD    14745599
        0x00002f18:    07000000    ....    DCD    117440512
        0x00002f1c:    7f0000fc    ....    DCD    2130706684
        0x00002f20:    000000c0    ....    DCD    192
        0x00002f24:    ffff0f00    ....    DCD    4294905600
        0x00002f28:    ffffffff    ....    DCD    4294967295
        0x00002f2c:    ffff3f00    .?..    DCD    4294917888
        0x00002f30:    ffffffff    ....    DCD    4294967295
        0x00002f34:    000000f0    ....    DCD    240
        0x00002f38:    00fe0300    ....    DCD    16646912
        0x00002f3c:    00c07f00    ....    DCD    12615424
        0x00002f40:    1f000000    ....    DCD    520093696
        0x00002f44:    ffffffff    ....    DCD    4294967295
        0x00002f48:    1f00ffff    ....    DCD    520159231
        0x00002f4c:    ffffffff    ....    DCD    4294967295
        0x00002f50:    00f8ffff    ....    DCD    16318463
        0x00002f54:    03000000    ....    DCD    50331648
        0x00002f58:    ff0000fe    ....    DCD    4278190334
        0x00002f5c:    00000080    ....    DCD    128
        0x00002f60:    ffff3f00    .?..    DCD    4294917888
        0x00002f64:    ffffffff    ....    DCD    4294967295
        0x00002f68:    ffff0f00    ....    DCD    4294905600
        0x00002f6c:    ffffffff    ....    DCD    4294967295
        0x00002f70:    000000fc    ....    DCD    252
        0x00002f74:    00ff0100    ....    DCD    16711936
        0x00002f78:    0080ff00    ....    DCD    8453888
        0x00002f7c:    3f000000    ...?    DCD    1056964608
        0x00002f80:    ffffffff    ....    DCD    4294967295
        0x00002f84:    0380ffff    ....    DCD    58785791
        0x00002f88:    ffffffff    ....    DCD    4294967295
        0x00002f8c:    00fcffff    ....    DCD    16580607
        0x00002f90:    01000000    ....    DCD    16777216
        0x00002f94:    ff0000ff    ....    DCD    4278190335
        0x00002f98:    00000000    ....    DCD    0
        0x00002f9c:    ffff7f00    ....    DCD    4294934272
        0x00002fa0:    ffffffff    ....    DCD    4294967295
        0x00002fa4:    ffff0180    ....    DCD    4294902144
        0x00002fa8:    ffffffff    ....    DCD    4294967295
        0x00002fac:    000000fe    ....    DCD    254
        0x00002fb0:    00ff0000    ....    DCD    16711680
        0x00002fb4:    0000ff01    ....    DCD    65281
        0x00002fb8:    ff000000    ....    DCD    4278190080
        0x00002fbc:    ffffffff    ....    DCD    4294967295
        0x00002fc0:    00c0ffff    ....    DCD    12648447
        0x00002fc4:    ffffff7f    ....    DCD    4294967167
        0x00002fc8:    00ffffff    ....    DCD    16777215
        0x00002fcc:    00000000    ....    DCD    0
        0x00002fd0:    ff0180ff    ....    DCD    4278288639
        0x00002fd4:    00000004    ....    DCD    4
        0x00002fd8:    ffffff00    ....    DCD    4294967040
        0x00002fdc:    ffffffff    ....    DCD    4294967295
        0x00002fe0:    ff3f00c0    ..?.    DCD    4282319040
        0x00002fe4:    ffffffff    ....    DCD    4294967295
        0x00002fe8:    000000ff    ....    DCD    255
        0x00002fec:    80ff0000    ....    DCD    2164195328
        0x00002ff0:    000cfe01    ....    DCD    851457
        0x00002ff4:    ff010000    ....    DCD    4278255616
        0x00002ff8:    ffffffff    ....    DCD    4294967295
        0x00002ffc:    00e0ffff    ....    DCD    14745599
        0x00003000:    ffffff0f    ....    DCD    4294967055
        0x00003004:    80ffffff    ....    DCD    2164260863
        0x00003008:    00000000    ....    DCD    0
        0x0000300c:    fe03c07f    ....    DCD    4261658751
        0x00003010:    0000000c    ....    DCD    12
        0x00003014:    ffffff03    ....    DCD    4294967043
        0x00003018:    ffffffff    ....    DCD    4294967295
        0x0000301c:    ff0300f0    ....    DCD    4278386928
        0x00003020:    ffffffff    ....    DCD    4294967295
        0x00003024:    0000c0ff    ....    DCD    49407
        0x00003028:    c07f0000    ....    DCD    3229548544
        0x0000302c:    000cfe03    ....    DCD    851459
        0x00003030:    ff030000    ....    DCD    4278386688
        0x00003034:    ffffffff    ....    DCD    4294967295
        0x00003038:    00f8ffff    ....    DCD    16318463
        0x0000303c:    ffffff01    ....    DCD    4294967041
        0x00003040:    c0ffffff    ....    DCD    3238002687
        0x00003044:    00000000    ....    DCD    0
        0x00003048:    fc03c03f    ?...    DCD    4228104255
        0x0000304c:    0000000c    ....    DCD    12
        0x00003050:    ffffff07    ....    DCD    4294967047
        0x00003054:    ffffffff    ....    DCD    4294967295
        0x00003058:    7f0000fc    ....    DCD    2130706684
        0x0000305c:    ffffffff    ....    DCD    4294967295
        0x00003060:    0000e0ff    ....    DCD    57599
        0x00003064:    e03f0000    ..?.    DCD    3762225152
        0x00003068:    c00cfc07    ....    DCD    3222076423
        0x0000306c:    ff070000    ....    DCD    4278648832
        0x00003070:    ffffffff    ....    DCD    4294967295
        0x00003074:    00feffff    ....    DCD    16711679
        0x00003078:    ffff1f00    ....    DCD    4294909696
        0x0000307c:    e0ffffff    ....    DCD    3774873599
        0x00003080:    00000000    ....    DCD    0
        0x00003084:    f807e03f    ?...    DCD    4161265727
        0x00003088:    0000700c    .p..    DCD    28684
        0x0000308c:    ffffff0f    ....    DCD    4294967055
        0x00003090:    ffffffff    ....    DCD    4294967295
        0x00003094:    070000ff    ....    DCD    117440767
        0x00003098:    ffffffff    ....    DCD    4294967295
        0x0000309c:    0000f0ff    ....    DCD    61695
        0x000030a0:    e01f0000    ....    DCD    3760128000
        0x000030a4:    3806f807    ...8    DCD    939980807
        0x000030a8:    ff0f0000    ....    DCD    4279173120
        0x000030ac:    ffffffff    ....    DCD    4294967295
        0x000030b0:    80ffffff    ....    DCD    2164260863
        0x000030b4:    ffff0100    ....    DCD    4294902016
        0x000030b8:    f0ffffff    ....    DCD    4043309055
        0x000030bc:    00000000    ....    DCD    0
        0x000030c0:    f80fe01f    ....    DCD    4161789983
        0x000030c4:    00003c07    .<..    DCD    15367
        0x000030c8:    ffffff1f    ....    DCD    4294967071
        0x000030cc:    ffffffff    ....    DCD    4294967295
        0x000030d0:    0000c0ff    ....    DCD    49407
        0x000030d4:    ffffff7f    ....    DCD    4294967167
        0x000030d8:    0002f8ff    ....    DCD    194815
        0x000030dc:    f01f0000    ....    DCD    4028563456
        0x000030e0:    3707f80f    ...7    DCD    923269135
        0x000030e4:    ff1f0000    ....    DCD    4280221696
        0x000030e8:    ff1fffff    ....    DCD    4280287231
        0x000030ec:    60fcffff    ...`    DCD    1627193343
        0x000030f0:    ff1f0000    ....    DCD    4280221696
        0x000030f4:    f8ffffff    ....    DCD    4177526783
        0x000030f8:    00000006    ....    DCD    6
        0x000030fc:    f00ff01f    ....    DCD    4027576351
        0x00003100:    00c07907    .y..    DCD    12613895
        0x00003104:    ffffff3f    ?...    DCD    4294967103
        0x00003108:    ffffff07    ....    DCD    4294967047
        0x0000310c:    0000f8f0    ....    DCD    63728
        0x00003110:    ffffff0f    ....    DCD    4294967055
        0x00003114:    0006fcff    ....    DCD    457983
        0x00003118:    f00f0000    ....    DCD    4027514880
        0x0000311c:    f807f00f    ....    DCD    4161269775
        0x00003120:    ff3f00f0    ..?.    DCD    4282319088
        0x00003124:    ff00ffff    ....    DCD    4278255615
        0x00003128:    fc80ffff    ....    DCD    4236312575
        0x0000312c:    ff030000    ....    DCD    4278386688
        0x00003130:    fcffffff    ....    DCD    4244635647
        0x00003134:    00c40007    ....    DCD    12845063
        0x00003138:    f01ff80f    ....    DCD    4028626959
        0x0000313c:    003cf807    ..<.    DCD    3995655
        0x00003140:    ffffff7f    ....    DCD    4294967167
        0x00003144:    feff3f00    .?..    DCD    4278140672
        0x00003148:    0000ff00    ....    DCD    65280
        0x0000314c:    ffffff00    ....    DCD    4294967040
        0x00003150:    8103feff    ....    DCD    2164522751
        0x00003154:    f80f00cc    ....    DCD    4161732812
        0x00003158:    fc02f01f    ....    DCD    4228050975
        0x0000315c:    ff7fc00f    ....    DCD    4286562319
        0x00003160:    0700ffff    ....    DCD    117506047
        0x00003164:    ff00f0ff    ....    DCD    4278251775
        0x00003168:    7f0000c0    ....    DCD    2130706624
        0x0000316c:    feffffff    ....    DCD    4278190079
        0x00003170:    0098e100    ....    DCD    10019072
        0x00003174:    e01ff807    ....    DCD    3760191495
        0x00003178:    f0016c02    .l..    DCD    4026625026
        0x0000317c:    ffffff7f    ....    DCD    4294967167
        0x00003180:    c0ff0100    ....    DCD    3237937408
        0x00003184:    00f0ff00    ....    DCD    15793920
        0x00003188:    ffff1f00    ....    DCD    4294909696
        0x0000318c:    7000feff    ...p    DCD    1879113471
        0x00003190:    f807007e    ~...    DCD    4161208446
        0x00003194:    3002e01f    ...0    DCD    805494815
        0x00003198:    ffff3000    .0..    DCD    4294914048
        0x0000319c:    0000ffff    ....    DCD    65535
        0x000031a0:    ff0080ff    ....    DCD    4278223103
        0x000031a4:    0f0000f8    ....    DCD    251658488
        0x000031a8:    ffffffff    ....    DCD    4294967295
        0x000031ac:    017e1800    ..~.    DCD    25040896
        0x000031b0:    e03ff887    ..?.    DCD    3762288775
        0x000031b4:    30001000    ...0    DCD    805310464
        0x000031b8:    ffffffff    ....    DCD    4294967295
        0x000031bc:    80ff0000    ....    DCD    2164195328
        0x000031c0:    00feff00    ....    DCD    16711424
        0x000031c4:    ffff0300    ....    DCD    4294902528
        0x000031c8:    0e00ffff    ....    DCD    234946559
        0x000031cc:    fc87c11b    ....    DCD    4236755227
        0x000031d0:    0000e03f    ?...    DCD    57407
        0x000031d4:    ffff0000    ....    DCD    4294901760
        0x000031d8:    0000ffff    ....    DCD    65535
        0x000031dc:    ff0080ff    ....    DCD    4278223103
        0x000031e0:    010000ff    ....    DCD    16777471
        0x000031e4:    ffffffff    ....    DCD    4294967295
        0x000031e8:    f11d8303    ....    DCD    4045243139
        0x000031ec:    c03ffc03    ..?.    DCD    3225418755
        0x000031f0:    01000000    ....    DCD    16777216
        0x000031f4:    ffffffff    ....    DCD    4294967295
        0x000031f8:    80ff0000    ....    DCD    2164195328
        0x000031fc:    80ffff00    ....    DCD    2164260608
        0x00003200:    ffff0000    ....    DCD    4294901760
        0x00003204:    c183ffff    ....    DCD    3246653439
        0x00003208:    fc039f9f    ....    DCD    4228095903
        0x0000320c:    0020c03f    ?. .    DCD    2146367
        0x00003210:    ffff0100    ....    DCD    4294902016
        0x00003214:    0000ffff    ....    DCD    65535
        0x00003218:    ff0080ff    ....    DCD    4278223103
        0x0000321c:    0000e0ff    ....    DCD    57599
        0x00003220:    ffffff7f    ....    DCD    4294967167
        0x00003224:    86ffe281    ....    DCD    2264916609
        0x00003228:    c03ffc03    ..?.    DCD    3225418755
        0x0000322c:    010000e0    ....    DCD    16777440
        0x00003230:    ffffffff    ....    DCD    4294967295
        0x00003234:    80ff0000    ....    DCD    2164195328
        0x00003238:    f0ffff00    ....    DCD    4043308800
        0x0000323c:    ff3f0000    ..?.    DCD    4282318848
        0x00003240:    f783ffff    ....    DCD    4152623103
        0x00003244:    fc03c0ff    ....    DCD    4228104447
        0x00003248:    00e0c17f    ....    DCD    14729599
        0x0000324c:    ffff0300    ....    DCD    4294902528
        0x00003250:    0000ffff    ....    DCD    65535
        0x00003254:    ff0080ff    ....    DCD    4278223103
        0x00003258:    0000f0ff    ....    DCD    61695
        0x0000325c:    ffffff1f    ....    DCD    4294967071
        0x00003260:    e0f7fcc1    ....    DCD    3774348481
        0x00003264:    c07ffe03    ....    DCD    3229613571
        0x00003268:    03000000    ....    DCD    50331648
        0x0000326c:    ffffffff    ....    DCD    4294967295
        0x00003270:    80ff0000    ....    DCD    2164195328
        0x00003274:    f8ffff00    ....    DCD    4177526528
        0x00003278:    ff0f0000    ....    DCD    4279173120
        0x0000327c:    f8c1ffff    ....    DCD    4173463551
        0x00003280:    fe03e073    s...    DCD    4261666931
        0x00003284:    0600807f    ....    DCD    100696191
        0x00003288:    ffff0300    ....    DCD    4294902528
        0x0000328c:    0000ffff    ....    DCD    65535
        0x00003290:    ff0080ff    ....    DCD    4278223103
        0x00003294:    0000fcff    ....    DCD    64767
        0x00003298:    ffffff0f    ....    DCD    4294967055
        0x0000329c:    f03118c0    ..1.    DCD    4029749440
        0x000032a0:    807ffe01    ....    DCD    2155871745
        0x000032a4:    0300f300    ....    DCD    50393856
        0x000032a8:    ff7fffff    ....    DCD    4286578687
        0x000032ac:    80ff0000    ....    DCD    2164195328
        0x000032b0:    feffff00    ....    DCD    4278189824
        0x000032b4:    ff070000    ....    DCD    4278648832
        0x000032b8:    00c0ffff    ....    DCD    12648447
        0x000032bc:    fe01f000    ....    DCD    4261539840
        0x000032c0:    7f00807f    ....    DCD    2130739327
        0x000032c4:    ffff0700    ....    DCD    4294903552
        0x000032c8:    0000ff3f    ?...    DCD    65343
        0x000032cc:    ff0080ff    ....    DCD    4278223103
        0x000032d0:    0000feff    ....    DCD    65279
        0x000032d4:    ffffff07    ....    DCD    4294967047
        0x000032d8:    000000e0    ....    DCD    224
        0x000032dc:    807ffe01    ....    DCD    2155871745
        0x000032e0:    07000600    ....    DCD    117442048
        0x000032e4:    ff9fffff    ....    DCD    4288675839
        0x000032e8:    80ff0000    ....    DCD    2164195328
        0x000032ec:    ffffff00    ....    DCD    4294967040
        0x000032f0:    ff030000    ....    DCD    4278386688
        0x000032f4:    00e0ffff    ....    DCD    14745599
        0x000032f8:    fe010000    ....    DCD    4261478400
        0x000032fc:    0000807f    ....    DCD    32895
        0x00003300:    ffff0700    ....    DCD    4294903552
        0x00003304:    0000ffc7    ....    DCD    65479
        0x00003308:    ff0080ff    ....    DCD    4278223103
        0x0000330c:    0000ffff    ....    DCD    65535
        0x00003310:    ffffff03    ....    DCD    4294967043
        0x00003314:    000000e0    ....    DCD    224
        0x00003318:    80fffe01    ....    DCD    2164260353
        0x0000331c:    07000000    ....    DCD    117440512
        0x00003320:    ffe3ffff    ....    DCD    4293132287
        0x00003324:    80ff0000    ....    DCD    2164195328
        0x00003328:    ffffff00    ....    DCD    4294967040
        0x0000332c:    ff010080    ....    DCD    4278255744
        0x00003330:    00e0ffff    ....    DCD    14745599
        0x00003334:    ff010000    ....    DCD    4278255616
        0x00003338:    000080ff    ....    DCD    33023
        0x0000333c:    ffff0700    ....    DCD    4294903552
        0x00003340:    0000ffe1    ....    DCD    65505
        0x00003344:    ff0080ff    ....    DCD    4278223103
        0x00003348:    0080ffff    ....    DCD    8454143
        0x0000334c:    ffffff01    ....    DCD    4294967041
        0x00003350:    000000e0    ....    DCD    224
        0x00003354:    80ffff01    ....    DCD    2164260609
        0x00003358:    07000000    ....    DCD    117440512
        0x0000335c:    7ff0ffff    ....    DCD    2146500607
        0x00003360:    80ff0000    ....    DCD    2164195328
        0x00003364:    ffffff00    ....    DCD    4294967040
        0x00003368:    ff0100c0    ....    DCD    4278255808
        0x0000336c:    00e0ffff    ....    DCD    14745599
        0x00003370:    ff000000    ....    DCD    4278190080
        0x00003374:    000080ff    ....    DCD    33023
        0x00003378:    ffff0f00    ....    DCD    4294905600
        0x0000337c:    00003ff8    .?..    DCD    16376
        0x00003380:    ff0080ff    ....    DCD    4278223103
        0x00003384:    00c0ffff    ....    DCD    12648447
        0x00003388:    ffffff01    ....    DCD    4294967041
        0x0000338c:    000000f0    ....    DCD    240
        0x00003390:    00ffff00    ....    DCD    16776960
        0x00003394:    0f000000    ....    DCD    251658240
        0x00003398:    0ffcffff    ....    DCD    268238847
        0x0000339c:    80ff0000    ....    DCD    2164195328
        0x000033a0:    ffffff00    ....    DCD    4294967040
        0x000033a4:    ff0100c0    ....    DCD    4278255808
        0x000033a8:    00f0ffff    ....    DCD    15794175
        0x000033ac:    ff000000    ....    DCD    4278190080
        0x000033b0:    000000ff    ....    DCD    255
        0x000033b4:    ffff0f00    ....    DCD    4294905600
        0x000033b8:    000007fe    ....    DCD    2046
        0x000033bc:    ff0080ff    ....    DCD    4278223103
        0x000033c0:    00c0ffff    ....    DCD    12648447
        0x000033c4:    ffffff00    ....    DCD    4294967040
        0x000033c8:    000000f0    ....    DCD    240
        0x000033cc:    00ffff00    ....    DCD    16776960
        0x000033d0:    0f000000    ....    DCD    251658240
        0x000033d4:    01feffff    ....    DCD    33488895
        0x000033d8:    80ff0080    ....    DCD    2164195456
        0x000033dc:    ffffff00    ....    DCD    4294967040
        0x000033e0:    ff0000c0    ....    DCD    4278190272
        0x000033e4:    00f0ffff    ....    DCD    15794175
        0x000033e8:    ff000000    ....    DCD    4278190080
        0x000033ec:    000000ff    ....    DCD    255
        0x000033f0:    ffff0f00    ....    DCD    4294905600
        0x000033f4:    000000ff    ....    DCD    255
        0x000033f8:    ff0080ff    ....    DCD    4278223103
        0x000033fc:    00c0ffff    ....    DCD    12648447
        0x00003400:    ffffff00    ....    DCD    4294967040
        0x00003404:    000000f0    ....    DCD    240
        0x00003408:    00ffff00    ....    DCD    16776960
        0x0000340c:    0f000000    ....    DCD    251658240
        0x00003410:    80ffffff    ....    DCD    2164260863
        0x00003414:    80ff0000    ....    DCD    2164195328
        0x00003418:    ffffff00    ....    DCD    4294967040
        0x0000341c:    ff0000c0    ....    DCD    4278190272
        0x00003420:    00f0ffff    ....    DCD    15794175
        0x00003424:    ff000000    ....    DCD    4278190080
        0x00003428:    000000ff    ....    DCD    255
        0x0000342c:    ffff0f00    ....    DCD    4294905600
        0x00003430:    0000c0ff    ....    DCD    49407
        0x00003434:    ff0080ff    ....    DCD    4278223103
        0x00003438:    00c0ffff    ....    DCD    12648447
        0x0000343c:    ffffff00    ....    DCD    4294967040
        0x00003440:    000000f0    ....    DCD    240
        0x00003444:    00ffff00    ....    DCD    16776960
        0x00003448:    0f000000    ....    DCD    251658240
        0x0000344c:    e0ffffff    ....    DCD    3774873599
        0x00003450:    80ff0000    ....    DCD    2164195328
        0x00003454:    ffffff00    ....    DCD    4294967040
        0x00003458:    ff0100c0    ....    DCD    4278255808
        0x0000345c:    00f0ffff    ....    DCD    15794175
        0x00003460:    ff000000    ....    DCD    4278190080
        0x00003464:    000000ff    ....    DCD    255
        0x00003468:    ffff0f00    ....    DCD    4294905600
        0x0000346c:    0000f0ff    ....    DCD    61695
        0x00003470:    ff0080ff    ....    DCD    4278223103
        0x00003474:    00c0ffff    ....    DCD    12648447
        0x00003478:    ffffff01    ....    DCD    4294967041
        0x0000347c:    000000f0    ....    DCD    240
        0x00003480:    00ffff00    ....    DCD    16776960
        0x00003484:    0f000000    ....    DCD    251658240
        0x00003488:    f8ffffff    ....    DCD    4177526783
        0x0000348c:    80ff0000    ....    DCD    2164195328
        0x00003490:    ffffff00    ....    DCD    4294967040
        0x00003494:    ff0100c0    ....    DCD    4278255808
        0x00003498:    00f0ffff    ....    DCD    15794175
        0x0000349c:    ff000000    ....    DCD    4278190080
        0x000034a0:    000000ff    ....    DCD    255
        0x000034a4:    ffff0f00    ....    DCD    4294905600
        0x000034a8:    0000fcff    ....    DCD    64767
        0x000034ac:    ff0080ff    ....    DCD    4278223103
        0x000034b0:    00c0ffff    ....    DCD    12648447
        0x000034b4:    ffffff01    ....    DCD    4294967041
        0x000034b8:    000000f0    ....    DCD    240
        0x000034bc:    00ffff00    ....    DCD    16776960
        0x000034c0:    0f000000    ....    DCD    251658240
        0x000034c4:    feffffff    ....    DCD    4278190079
        0x000034c8:    80ff0000    ....    DCD    2164195328
        0x000034cc:    ffffff00    ....    DCD    4294967040
        0x000034d0:    ff030080    ....    DCD    4278386816
        0x000034d4:    00f0ffff    ....    DCD    15794175
        0x000034d8:    ff000000    ....    DCD    4278190080
        0x000034dc:    000000ff    ....    DCD    255
        0x000034e0:    ffff0f00    ....    DCD    4294905600
        0x000034e4:    0000ffff    ....    DCD    65535
        0x000034e8:    ff0080ff    ....    DCD    4278223103
        0x000034ec:    0080ffff    ....    DCD    8454143
        0x000034f0:    ffffff03    ....    DCD    4294967043
        0x000034f4:    000000f0    ....    DCD    240
        0x000034f8:    00ffff00    ....    DCD    16776960
        0x000034fc:    0f000000    ....    DCD    251658240
        0x00003500:    ffffffff    ....    DCD    4294967295
        0x00003504:    80ff0080    ....    DCD    2164195456
        0x00003508:    ffffff00    ....    DCD    4294967040
        0x0000350c:    ff030000    ....    DCD    4278386688
        0x00003510:    00f0ffff    ....    DCD    15794175
        0x00003514:    ff000000    ....    DCD    4278190080
        0x00003518:    000000ff    ....    DCD    255
        0x0000351c:    ffff0f00    ....    DCD    4294905600
        0x00003520:    0000ffff    ....    DCD    65535
        0x00003524:    ff00807f    ....    DCD    4278222975
        0x00003528:    0000feff    ....    DCD    65279
        0x0000352c:    ffffff07    ....    DCD    4294967047
        0x00003530:    000000f0    ....    DCD    240
        0x00003534:    00ffff00    ....    DCD    16776960
        0x00003538:    0f000000    ....    DCD    251658240
        0x0000353c:    ffffffff    ....    DCD    4294967295
        0x00003540:    801f0000    ....    DCD    2149515264
        0x00003544:    feffff00    ....    DCD    4278189824
        0x00003548:    ff070000    ....    DCD    4278648832
        0x0000354c:    00f0ffff    ....    DCD    15794175
        0x00003550:    ff000000    ....    DCD    4278190080
        0x00003554:    000000ff    ....    DCD    255
        0x00003558:    ffff0f00    ....    DCD    4294905600
        0x0000355c:    0000ffff    ....    DCD    65535
        0x00003560:    ff008003    ....    DCD    4278222851
        0x00003564:    0000fcff    ....    DCD    64767
        0x00003568:    ffffff0f    ....    DCD    4294967055
        0x0000356c:    000000f0    ....    DCD    240
        0x00003570:    00ffff00    ....    DCD    16776960
        0x00003574:    0f000000    ....    DCD    251658240
        0x00003578:    ffffffff    ....    DCD    4294967295
        0x0000357c:    80000000    ....    DCD    2147483648
        0x00003580:    f0ffff00    ....    DCD    4043308800
        0x00003584:    ff0f0000    ....    DCD    4279173120
        0x00003588:    00f0ffff    ....    DCD    15794175
        0x0000358c:    ff000000    ....    DCD    4278190080
        0x00003590:    000000ff    ....    DCD    255
        0x00003594:    ffff0f00    ....    DCD    4294905600
        0x00003598:    0000ffff    ....    DCD    65535
        0x0000359c:    ff000000    ....    DCD    4278190080
        0x000035a0:    0000e0ff    ....    DCD    57599
        0x000035a4:    ffffff1f    ....    DCD    4294967071
        0x000035a8:    000000f0    ....    DCD    240
        0x000035ac:    00ffff00    ....    DCD    16776960
        0x000035b0:    0f000000    ....    DCD    251658240
        0x000035b4:    ffffffff    ....    DCD    4294967295
        0x000035b8:    00000000    ....    DCD    0
        0x000035bc:    80ffff00    ....    DCD    2164260608
        0x000035c0:    ff3f0000    ..?.    DCD    4282318848
        0x000035c4:    00f0ffff    ....    DCD    15794175
        0x000035c8:    ff000000    ....    DCD    4278190080
        0x000035cc:    000080ff    ....    DCD    33023
        0x000035d0:    ffff0700    ....    DCD    4294903552
        0x000035d4:    0000ffff    ....    DCD    65535
        0x000035d8:    ff000000    ....    DCD    4278190080
        0x000035dc:    000000fc    ....    DCD    252
        0x000035e0:    ffffff3f    ?...    DCD    4294967103
        0x000035e4:    000000e0    ....    DCD    224
        0x000035e8:    80ffff00    ....    DCD    2164260608
        0x000035ec:    07000600    ....    DCD    117442048
        0x000035f0:    ffffffff    ....    DCD    4294967295
        0x000035f4:    00000000    ....    DCD    0
        0x000035f8:    00e07f00    ....    DCD    14712576
        0x000035fc:    ff7f0000    ....    DCD    4286513152
        0x00003600:    00e0ffff    ....    DCD    14745599
        0x00003604:    ff010060    `...    DCD    4278255712
        0x00003608:    fe0f80ff    ....    DCD    4262428927
        0x0000360c:    ffff0700    ....    DCD    4294903552
        0x00003610:    0000ffff    ....    DCD    65535
        0x00003614:    00000000    ....    DCD    0
        0x00003618:    00000000    ....    DCD    0
        0x0000361c:    ffffffff    ....    DCD    4294967295
        0x00003620:    007800e0    ..x.    DCD    7864544
        0x00003624:    807fff01    ....    DCD    2155872001
        0x00003628:    0700fe07    ....    DCD    117505543
        0x0000362c:    ffffffff    ....    DCD    4294967295
        0x00003630:    00000000    ....    DCD    0
        0x00003634:    00000000    ....    DCD    0
        0x00003638:    ffff0100    ....    DCD    4294902016
        0x0000363c:    00e0ffff    ....    DCD    14745599
        0x00003640:    fe01000c    ....    DCD    4261478412
        0x00003644:    e207807f    ....    DCD    3792142463
        0x00003648:    ffff0700    ....    DCD    4294903552
        0x0000364c:    0000ffff    ....    DCD    65535
        0x00003650:    00000000    ....    DCD    0
        0x00003654:    03000000    ....    DCD    50331648
        0x00003658:    ffffffff    ....    DCD    4294967295
        0x0000365c:    a00700e0    ....    DCD    2684813536
        0x00003660:    807ffe01    ....    DCD    2155871745
        0x00003664:    07002004    . ..    DCD    117448708
        0x00003668:    ffffffff    ....    DCD    4294967295
        0x0000366c:    00c00000    ....    DCD    12582912
        0x00003670:    00000000    ....    DCD    0
        0x00003674:    ffff0f00    ....    DCD    4294905600
        0x00003678:    00e0ffff    ....    DCD    14745599
        0x0000367c:    fe01e05f    _...    DCD    4261535839
        0x00003680:    2200807f    ..."    DCD    570458239
        0x00003684:    ffff0300    ....    DCD    4294902528
        0x00003688:    0000ffff    ....    DCD    65535
        0x0000368c:    000000e0    ....    DCD    224
        0x00003690:    1f000000    ....    DCD    520093696
        0x00003694:    ffffffff    ....    DCD    4294967295
        0x00003698:    e07f00c0    ....    DCD    3766419648
        0x0000369c:    807ffe01    ....    DCD    2155871745
        0x000036a0:    03003e04    .>..    DCD    50347524
        0x000036a4:    ffffffff    ....    DCD    4294967295
        0x000036a8:    00f80000    ....    DCD    16252928
        0x000036ac:    00000000    ....    DCD    0
        0x000036b0:    ffff3f00    .?..    DCD    4294917888
        0x000036b4:    00c0ffff    ....    DCD    12648447
        0x000036b8:    fe016078    x`..    DCD    4261503096
        0x000036bc:    fe07c07f    ....    DCD    4261920895
        0x000036c0:    ffff0300    ....    DCD    4294902528
        0x000036c4:    0000ffff    ....    DCD    65535
        0x000036c8:    000000ff    ....    DCD    255
        0x000036cc:    ff000000    ....    DCD    4278190080
        0x000036d0:    ffffffff    ....    DCD    4294967295
        0x000036d4:    00c000c0    ....    DCD    12583104
        0x000036d8:    c07ffe01    ....    DCD    3229613569
        0x000036dc:    0300ff03    ....    DCD    50396931
        0x000036e0:    ffffffff    ....    DCD    4294967295
        0x000036e4:    80ff0000    ....    DCD    2164195328
        0x000036e8:    00000000    ....    DCD    0
        0x000036ec:    ffffff03    ....    DCD    4294967043
        0x000036f0:    00c0ffff    ....    DCD    12648447
        0x000036f4:    fe030000    ....    DCD    4261609472
        0x000036f8:    0003c03f    ?...    DCD    245823
        0x000036fc:    ffff0100    ....    DCD    4294902016
        0x00003700:    0000ffff    ....    DCD    65535
        0x00003704:    000080ff    ....    DCD    33023
        0x00003708:    ff0f0000    ....    DCD    4279173120
        0x0000370c:    ffffffff    ....    DCD    4294967295
        0x00003710:    00e00080    ....    DCD    14680192
        0x00003714:    c03ffc03    ..?.    DCD    3225418755
        0x00003718:    01000002    ....    DCD    16777218
        0x0000371c:    ffffffff    ....    DCD    4294967295
        0x00003720:    80ff0000    ....    DCD    2164195328
        0x00003724:    00000000    ....    DCD    0
        0x00003728:    ffffff7f    ....    DCD    4294967167
        0x0000372c:    0080ffff    ....    DCD    8454143
        0x00003730:    fc0300e0    ....    DCD    4228055264
        0x00003734:    0100c03f    ?...    DCD    16826431
        0x00003738:    ffff0180    ....    DCD    4294902144
        0x0000373c:    0000ffff    ....    DCD    65535
        0x00003740:    000080ff    ....    DCD    33023
        0x00003744:    ffff0700    ....    DCD    4294903552
        0x00003748:    ffffffff    ....    DCD    4294967295
        0x0000374c:    00800180    ....    DCD    8388992
        0x00003750:    e03ffc03    ..?.    DCD    3762289667
        0x00003754:    00800f00    ....    DCD    8392448
        0x00003758:    ffffffff    ....    DCD    4294967295
        0x0000375c:    80ff0000    ....    DCD    2164195328
        0x00003760:    ff037000    .p..    DCD    4278415360
        0x00003764:    ffffffff    ....    DCD    4294967295
        0x00003768:    0100ffff    ....    DCD    16842751
        0x0000376c:    fc030080    ....    DCD    4228055168
        0x00003770:    7f01e03f    ?...    DCD    2130829375
        0x00003774:    ffff0080    ....    DCD    4294901888
        0x00003778:    0000ffff    ....    DCD    65535
        0x0000377c:    ff0080ff    ....    DCD    4278223103
        0x00003780:    ffffffff    ....    DCD    4294967295
        0x00003784:    ffffffff    ....    DCD    4294967295
        0x00003788:    80f80100    ....    DCD    2163736832
        0x0000378c:    e01ffc07    ....    DCD    3760192519
        0x00003790:    00c0fe01    ....    DCD    12647937
        0x00003794:    ffffffff    ....    DCD    4294967295
        0x00003798:    80ff0000    ....    DCD    2164195328
        0x0000379c:    ffffff00    ....    DCD    4294967040
        0x000037a0:    ffffffff    ....    DCD    4294967295
        0x000037a4:    0100ffff    ....    DCD    16842751
        0x000037a8:    f80780ff    ....    DCD    4161241343
        0x000037ac:    e801e01f    ....    DCD    3892437023
        0x000037b0:    ff7f0040    @...    DCD    4286513216
        0x000037b4:    0000ffff    ....    DCD    65535
        0x000037b8:    ff0080ff    ....    DCD    4278223103
        0x000037bc:    ffffffff    ....    DCD    4294967295
        0x000037c0:    feffffff    ....    DCD    4278190079
        0x000037c4:    803f0300    ..?.    DCD    2151613184
        0x000037c8:    e01ff807    ....    DCD    3760191495
        0x000037cc:    00408e01    ..@.    DCD    4230657
        0x000037d0:    ffffff7f    ....    DCD    4294967167
        0x000037d4:    80ff0000    ....    DCD    2164195328
        0x000037d8:    ffffff00    ....    DCD    4294967040
        0x000037dc:    ffffffff    ....    DCD    4294967295
        0x000037e0:    0300feff    ....    DCD    50396927
        0x000037e4:    f8070003    ....    DCD    4161208323
        0x000037e8:    8e00f01f    ....    DCD    2382426143
        0x000037ec:    ff7f00c0    ....    DCD    4286513344
        0x000037f0:    0000ffff    ....    DCD    65535
        0x000037f4:    ff0080ff    ....    DCD    4278223103
        0x000037f8:    ffffffff    ....    DCD    4294967295
        0x000037fc:    feffffff    ....    DCD    4278190079
        0x00003800:    00810300    ....    DCD    8454912
        0x00003804:    f01ff80f    ....    DCD    4028626959
        0x00003808:    00c0c100    ....    DCD    12632320
        0x0000380c:    ffffff3f    ?...    DCD    4294967103
        0x00003810:    80ff0000    ....    DCD    2164195328
        0x00003814:    ffffff00    ....    DCD    4294967040
        0x00003818:    ffffffff    ....    DCD    4294967295
        0x0000381c:    0000fcff    ....    DCD    64767
        0x00003820:    f80f0080    ....    DCD    4161732736
        0x00003824:    f100f00f    ....    DCD    4043370511
        0x00003828:    ff3f0000    ..?.    DCD    4282318848
        0x0000382c:    0000ffff    ....    DCD    65535
        0x00003830:    ff0080ff    ....    DCD    4278223103
        0x00003834:    ffffffff    ....    DCD    4294967295
        0x00003838:    fcffffff    ....    DCD    4244635647
        0x0000383c:    00000000    ....    DCD    0
        0x00003840:    f80ff00f    ....    DCD    4161794063
        0x00003844:    00007800    .x..    DCD    30720
        0x00003848:    ffffff1f    ....    DCD    4294967071
        0x0000384c:    80ff0000    ....    DCD    2164195328
        0x00003850:    ffffff00    ....    DCD    4294967040
        0x00003854:    ffffffff    ....    DCD    4294967295
        0x00003858:    0400f8ff    ....    DCD    67172607
        0x0000385c:    f00f0000    ....    DCD    4027514880
        0x00003860:    0000f80f    ....    DCD    63503
        0x00003864:    ff1f0030    0...    DCD    4280221744
        0x00003868:    0000ffff    ....    DCD    65535
        0x0000386c:    ff0080ff    ....    DCD    4278223103
        0x00003870:    ffffffff    ....    DCD    4294967295
        0x00003874:    f8ffffff    ....    DCD    4177526783
        0x00003878:    00000f00    ....    DCD    3840
        0x0000387c:    f807f01f    ....    DCD    4161269791
        0x00003880:    00700000    ..p.    DCD    7340032
        0x00003884:    ffffff0f    ....    DCD    4294967055
        0x00003888:    80ff0000    ....    DCD    2164195328
        0x0000388c:    ffffff00    ....    DCD    4294967040
        0x00003890:    ffffffff    ....    DCD    4294967295
        0x00003894:    0f00f0ff    ....    DCD    251719935
        0x00003898:    e01f00e2    ....    DCD    3760128226
        0x0000389c:    0300f807    ....    DCD    50395143
        0x000038a0:    ff0f00f0    ....    DCD    4279173360
        0x000038a4:    0000ffff    ....    DCD    65535
        0x000038a8:    ff0080ff    ....    DCD    4278223103
        0x000038ac:    ffffffff    ....    DCD    4294967295
        0x000038b0:    f0ffffff    ....    DCD    4043309055
        0x000038b4:    00fc0b00    ....    DCD    16517888
        0x000038b8:    fc07e01f    ....    DCD    4228374559
        0x000038bc:    00703f00    .?p.    DCD    7356160
        0x000038c0:    ffffff07    ....    DCD    4294967047
        0x000038c4:    80ff0000    ....    DCD    2164195328
        0x000038c8:    ffffff00    ....    DCD    4294967040
        0x000038cc:    ffffffff    ....    DCD    4294967295
        0x000038d0:    0000e0ff    ....    DCD    57599
        0x000038d4:    e03f007c    |.?.    DCD    3762225276
        0x000038d8:    1800fc07    ....    DCD    402717703
        0x000038dc:    ff0700e0    ....    DCD    4278649056
        0x000038e0:    0000ffff    ....    DCD    65535
        0x000038e4:    ff0080ff    ....    DCD    4278223103
        0x000038e8:    ffffffff    ....    DCD    4294967295
        0x000038ec:    e0ffffff    ....    DCD    3774873599
        0x000038f0:    000c0000    ....    DCD    786432
        0x000038f4:    fc03e03f    ?...    DCD    4228112447
        0x000038f8:    00e01000    ....    DCD    14684160
        0x000038fc:    ffffff03    ....    DCD    4294967043
        0x00003900:    80ff0000    ....    DCD    2164195328
        0x00003904:    ffffff00    ....    DCD    4294967040
        0x00003908:    ffffffff    ....    DCD    4294967295
        0x0000390c:    3000c0ff    ...0    DCD    805355775
        0x00003910:    c03f0008    ..?.    DCD    3225354248
        0x00003914:    0100fe03    ....    DCD    16842243
        0x00003918:    ff0300c4    ....    DCD    4278386884
        0x0000391c:    0000ffff    ....    DCD    65535
        0x00003920:    ff0080ff    ....    DCD    4278223103
        0x00003924:    7ffff7ff    ....    DCD    2147481599
        0x00003928:    c0fffff7    ....    DCD    3238002679
        0x0000392c:    00003800    .8..    DCD    14336
        0x00003930:    fe01c07f    ....    DCD    4261527679
        0x00003934:    008e0100    ....    DCD    9306368
        0x00003938:    ffffff01    ....    DCD    4294967041
        0x0000393c:    80ff0000    ....    DCD    2164195328
        0x00003940:    c1bfff00    ....    DCD    3250585344
        0x00003944:    ffc11ffc    ....    DCD    4290846716
        0x00003948:    630080ff    ...c    DCD    1660977407
        0x0000394c:    c07f0080    ....    DCD    3229548672
        0x00003950:    0300ff01    ....    DCD    50396929
        0x00003954:    ff0000ba    ....    DCD    4278190266
        0x00003958:    0000ffff    ....    DCD    65535
        0x0000395c:    fe0080ff    ....    DCD    4261445887
        0x00003960:    cff99c3f    ?...    DCD    3489242175
        0x00003964:    00ffff9c    ....    DCD    16777116
        0x00003968:    00c0c700    ....    DCD    12633856
        0x0000396c:    ff0180ff    ....    DCD    4278288639
        0x00003970:    00e00700    ....    DCD    14681856
        0x00003974:    ffffff00    ....    DCD    4294967040
        0x00003978:    80ff0000    ....    DCD    2164195328
        0x0000397c:    9e3fff00    ..?.    DCD    2654994176
        0x00003980:    ffbceff9    ....    DCD    4290572281
        0x00003984:    cf0000ff    ....    DCD    3472883967
        0x00003988:    80ff00e0    ....    DCD    2164195552
        0x0000398c:    0700ff00    ....    DCD    117505792
        0x00003990:    7f000000    ....    DCD    2130706432
        0x00003994:    0000ffff    ....    DCD    65535
        0x00003998:    ff0080ff    ....    DCD    4278223103
        0x0000399c:    e7fb9ebf    ....    DCD    3892027071
        0x000039a0:    00feffbe    ....    DCD    16711614
        0x000039a4:    00607e00    .~`.    DCD    6323712
        0x000039a8:    ff0000ff    ....    DCD    4278190335
        0x000039ac:    00000080    ....    DCD    128
        0x000039b0:    ffff3f00    .?..    DCD    4294917888
        0x000039b4:    80ff0000    ....    DCD    2164195328
        0x000039b8:    9e3fff00    ..?.    DCD    2654994176
        0x000039bc:    ffbee77b    {...    DCD    4290701179
        0x000039c0:    7c0000fc    ...|    DCD    2080375036
        0x000039c4:    00ff0140    @...    DCD    16712000
        0x000039c8:    0080ff00    ....    DCD    8453888
        0x000039cc:    3f000000    ...?    DCD    1056964608
        0x000039d0:    0000ffff    ....    DCD    65535
        0x000039d4:    ff0080ff    ....    DCD    4278223103
        0x000039d8:    e77b9c3f    ?.{.    DCD    3883637823
        0x000039dc:    00fcff9c    ....    DCD    16580508
        0x000039e0:    01c03000    .0..    DCD    29372416
        0x000039e4:    7f0000ff    ....    DCD    2130706687
        0x000039e8:    c00700c0    ....    DCD    3221684416
        0x000039ec:    ffff1f00    ....    DCD    4294909696
        0x000039f0:    80ff0000    ....    DCD    2164195328
        0x000039f4:    c03fff00    ..?.    DCD    3225419520
        0x000039f8:    ffc0e77b    {...    DCD    4290832251
        0x000039fc:    070000f8    ....    DCD    117440760
        0x00003a00:    00fe0380    ....    DCD    16647040
        0x00003a04:    01c07f00    ....    DCD    29392640
        0x00003a08:    0f00c0ff    ....    DCD    251707647
        0x00003a0c:    0000ffff    ....    DCD    65535
        0x00003a10:    ff0080ff    ....    DCD    4278223103
        0x00003a14:    e7fbe63f    ?...    DCD    3892045375
        0x00003a18:    00f0ffe6    ....    DCD    15794150
        0x00003a1c:    03800303    ....    DCD    58721027
        0x00003a20:    3f0000fe    ...?    DCD    1056964862
        0x00003a24:    80db00e0    ....    DCD    2161836256
        0x00003a28:    ffff0700    ....    DCD    4294903552
        0x00003a2c:    80ff0000    ....    DCD    2164195328
        0x00003a30:    fe3fff00    ..?.    DCD    4265606912
        0x00003a34:    fffce7fb    ....    DCD    4294764539
        0x00003a38:    800700e0    ....    DCD    2147942624
        0x00003a3c:    00fc0700    ....    DCD    16516864
        0x00003a40:    00e03f00    .?..    DCD    14696192
        0x00003a44:    0700008f    ....    DCD    117440655
        0x00003a48:    0000ffff    ....    DCD    65535
        0x00003a4c:    7f0080ff    ....    DCD    2130739455
        0x00003a50:    eff99c3f    ?...    DCD    4026113087
        0x00003a54:    00e0ff9c    ....    DCD    14745500
        0x00003a58:    0700c00f    ....    DCD    117489679
        0x00003a5c:    3f0000fc    ...?    DCD    1056964860
        0x00003a60:    000f00f0    ....    DCD    983280
        0x00003a64:    ffff0300    ....    DCD    4294902528
        0x00003a68:    80ff0080    ....    DCD    2164195456
        0x00003a6c:    dd3fff00    ..?.    DCD    3711958784
        0x00003a70:    ff99cffc    ....    DCD    4288270332
        0x00003a74:    f60800c0    ....    DCD    4127719616
        0x00003a78:    00fc0f00    ....    DCD    16518912
        0x00003a7c:    00f01f00    ....    DCD    15736576
        0x00003a80:    0100000e    ....    DCD    16777230
        0x00003a84:    00f0ffff    ....    DCD    15794175
        0x00003a88:    ff0780ff    ....    DCD    4278681855
        0x00003a8c:    1ffee33f    ?...    DCD    536798015
        0x00003a90:    0080ffc3    ....    DCD    8454083
        0x00003a94:    0f00fe1c    ....    DCD    251723292
        0x00003a98:    1f0000f8    ....    DCD    520093944
        0x00003a9c:    043c00f8    ..<.    DCD    71041272
        0x00003aa0:    ffff0000    ....    DCD    4294901760
        0x00003aa4:    80ff00fc    ....    DCD    2164195580
        0x00003aa8:    ffffff1f    ....    DCD    4294967071
        0x00003aac:    ffffffff    ....    DCD    4294967295
        0x00003ab0:    bc3f0000    ..?.    DCD    3158245376
        0x00003ab4:    00f81f00    ....    DCD    16260864
        0x00003ab8:    00f80f00    ....    DCD    16256768
        0x00003abc:    00000618    ....    DCD    1560
        0x00003ac0:    80ffff7f    ....    DCD    2164260735
        0x00003ac4:    ffff80ff    ....    DCD    4294934783
        0x00003ac8:    ffffffff    ....    DCD    4294967295
        0x00003acc:    0000feff    ....    DCD    65279
        0x00003ad0:    1f00882f    /...    DCD    520128559
        0x00003ad4:    0f0000f0    ....    DCD    251658480
        0x00003ad8:    1e1800fc    ....    DCD    504889596
        0x00003adc:    ff3f0000    ..?.    DCD    4282318848
        0x00003ae0:    83ffe0ff    ....    DCD    2214584575
        0x00003ae4:    ffffffff    ....    DCD    4294967295
        0x00003ae8:    fcffffff    ....    DCD    4244635647
        0x00003aec:    e0030000    ....    DCD    3758292992
        0x00003af0:    00f03f00    .?..    DCD    15744768
        0x00003af4:    00fc0700    ....    DCD    16516864
        0x00003af8:    00003e08    .>..    DCD    15880
        0x00003afc:    fcffff1f    ....    DCD    4244635423
        0x00003b00:    ffff9fff    ....    DCD    4294942719
        0x00003b04:    ffffffff    ....    DCD    4294967295
        0x00003b08:    0000f8ff    ....    DCD    63743
        0x00003b0c:    3f00f0c0    ...?    DCD    1057026240
        0x00003b10:    070000e0    ....    DCD    117440736
        0x00003b14:    ee0000fe    ....    DCD    3992977662
        0x00003b18:    ff0f0000    ....    DCD    4279173120
        0x00003b1c:    ffffffff    ....    DCD    4294967295
        0x00003b20:    ffffffff    ....    DCD    4294967295
        0x00003b24:    f0ffffff    ....    DCD    4043309055
        0x00003b28:    70e00100    ...p    DCD    1893728512
        0x00003b2c:    00e07f00    ....    DCD    14712576
        0x00003b30:    00fe0300    ....    DCD    16646912
        0x00003b34:    00008c07    ....    DCD    35847
        0x00003b38:    ffffff07    ....    DCD    4294967047
        0x00003b3c:    ffffffff    ....    DCD    4294967295
        0x00003b40:    ffffffff    ....    DCD    4294967295
        0x00003b44:    0300e0ff    ....    DCD    50389247
        0x00003b48:    7f002000    . ..    DCD    2130714624
        0x00003b4c:    030000c0    ....    DCD    50331840
        0x00003b50:    1c0300ff    ....    DCD    469958911
        0x00003b54:    ff030040    @...    DCD    4278386752
        0x00003b58:    ffffffff    ....    DCD    4294967295
        0x00003b5c:    ffffffff    ....    DCD    4294967295
        0x00003b60:    c0ffffff    ....    DCD    3238002687
        0x00003b64:    00460200    ..F.    DCD    4588032
        0x00003b68:    0080ff00    ....    DCD    8453888
        0x00003b6c:    80ff0100    ....    DCD    2164195584
        0x00003b70:    00e01801    ....    DCD    14686209
        0x00003b74:    ffffff01    ....    DCD    4294967041
        0x00003b78:    ffffffff    ....    DCD    4294967295
        0x00003b7c:    ffffffff    ....    DCD    4294967295
        0x00003b80:    060080ff    ....    DCD    100696319
        0x00003b84:    ff000073    s...    DCD    4278190195
        0x00003b88:    00000080    ....    DCD    128
        0x00003b8c:    1b0080ff    ....    DCD    453017855
        0x00003b90:    7f000080    ....    DCD    2130706560
        0x00003b94:    ffffffff    ....    DCD    4294967295
        0x00003b98:    ffffffff    ....    DCD    4294967295
        0x00003b9c:    00ffffff    ....    DCD    16777215
        0x00003ba0:    00330f00    ..3.    DCD    3346176
        0x00003ba4:    0000ff01    ....    DCD    65281
        0x00003ba8:    c0ff0000    ....    DCD    3237937152
        0x00003bac:    00003e00    .>..    DCD    15872
        0x00003bb0:    ffff3f00    .?..    DCD    4294917888
        0x00003bb4:    ffffffff    ....    DCD    4294967295
        0x00003bb8:    ffffffff    ....    DCD    4294967295
        0x00003bbc:    130000fc    ....    DCD    318767356
        0x00003bc0:    ff0300c3    ....    DCD    4278386883
        0x00003bc4:    00000000    ....    DCD    0
        0x00003bc8:    3c00c07f    ...<    DCD    1006682239
        0x00003bcc:    1f000004    ....    DCD    520093700
        0x00003bd0:    ffffffff    ....    DCD    4294967295
        0x00003bd4:    ffffffff    ....    DCD    4294967295
        0x00003bd8:    00f8ffff    ....    DCD    16318463
        0x00003bdc:    00e22100    .!..    DCD    14819584
        0x00003be0:    0000fe03    ....    DCD    65027
        0x00003be4:    e07f0000    ....    DCD    3766419456
        0x00003be8:    00063000    .0..    DCD    405504
        0x00003bec:    ffff0700    ....    DCD    4294903552
        0x00003bf0:    ffffffff    ....    DCD    4294967295
        0x00003bf4:    ffffffff    ....    DCD    4294967295
        0x00003bf8:    600000f0    ...`    DCD    1610612976
        0x00003bfc:    fe0700f4    ....    DCD    4261871860
        0x00003c00:    00000000    ....    DCD    0
        0x00003c04:    0000f03f    ?...    DCD    61503
        0x00003c08:    03000007    ....    DCD    50331655
        0x00003c0c:    ffffffff    ....    DCD    4294967295
        0x00003c10:    ffffffff    ....    DCD    4294967295
        0x00003c14:    00c0ffff    ....    DCD    12648447
        0x00003c18:    007c3000    .0|.    DCD    8138752
        0x00003c1c:    0000fc0f    ....    DCD    64527
        0x00003c20:    f81f0000    ....    DCD    4162781184
        0x00003c24:    800f0000    ....    DCD    2148466688
        0x00003c28:    ffff0100    ....    DCD    4294902016
        0x00003c2c:    ffffffff    ....    DCD    4294967295
        0x00003c30:    ffffffff    ....    DCD    4294967295
        0x00003c34:    10010080    ....    DCD    268501120
        0x00003c38:    f80f0018    ....    DCD    4161732632
        0x00003c3c:    00000000    ....    DCD    0
        0x00003c40:    0000f81f    ....    DCD    63519
        0x00003c44:    0000c01c    ....    DCD    49180
        0x00003c48:    ffffff7f    ....    DCD    4294967167
        0x00003c4c:    ffffffff    ....    DCD    4294967295
        0x00003c50:    0000feff    ....    DCD    65279
        0x00003c54:    00100803    ....    DCD    1050627
        0x00003c58:    0000f81f    ....    DCD    63519
        0x00003c5c:    fc0f0000    ....    DCD    4228841472
        0x00003c60:    c0380000    ..8.    DCD    3224895488
        0x00003c64:    ff1f0000    ....    DCD    4280221696
        0x00003c68:    ffffffff    ....    DCD    4294967295
        0x00003c6c:    f8ffffff    ....    DCD    4177526783
        0x00003c70:    88070000    ....    DCD    2282160128
        0x00003c74:    f03f0000    ..?.    DCD    4030660608
        0x00003c78:    00000000    ....    DCD    0
        0x00003c7c:    0000fe07    ....    DCD    65031
        0x00003c80:    0000c07d    }...    DCD    49277
        0x00003c84:    ffffff07    ....    DCD    4294967047
        0x00003c88:    ffffffff    ....    DCD    4294967295
        0x00003c8c:    0000e0ff    ....    DCD    57599
        0x00003c90:    0000e407    ....    DCD    58375
        0x00003c94:    0000e07f    ....    DCD    57471
        0x00003c98:    fe070000    ....    DCD    4261871616
        0x00003c9c:    c0e70100    ....    DCD    3236364544
        0x00003ca0:    ff010000    ....    DCD    4278255616
        0x00003ca4:    ffffffff    ....    DCD    4294967295
        0x00003ca8:    80ffffff    ....    DCD    2164260863
        0x00003cac:    fc100000    ....    DCD    4228907008
        0x00003cb0:    e07f0000    ....    DCD    3766419456
        0x00003cb4:    00000000    ....    DCD    0
        0x00003cb8:    0000ff03    ....    DCD    65283
        0x00003cbc:    000080c3    ....    DCD    32963
        0x00003cc0:    ffff7f00    ....    DCD    4294934272
        0x00003cc4:    ffffffff    ....    DCD    4294967295
        0x00003cc8:    000000fe    ....    DCD    254
        0x00003ccc:    00003e30    0>..    DCD    15920
        0x00003cd0:    0000c0ff    ....    DCD    49407
        0x00003cd4:    ff010000    ....    DCD    4278255616
        0x00003cd8:    1f400080    ..@.    DCD    524288128
        0x00003cdc:    1f000000    ....    DCD    520093696
        0x00003ce0:    ffffffff    ....    DCD    4294967295
        0x00003ce4:    00f8ffff    ....    DCD    16318463
        0x00003ce8:    0ef00000    ....    DCD    250609664
        0x00003cec:    80ff0100    ....    DCD    2164195584
        0x00003cf0:    00000000    ....    DCD    0
        0x00003cf4:    00c0ff00    ....    DCD    12648192
        0x00003cf8:    00803f00    .?..    DCD    8404736
        0x00003cfc:    ffff0300    ....    DCD    4294902528
        0x00003d00:    ffffffff    ....    DCD    4294967295
        0x00003d04:    000000c0    ....    DCD    192
        0x00003d08:    030000f8    ....    DCD    50331896
        0x00003d0c:    000000ff    ....    DCD    255
        0x00003d10:    ff000000    ....    DCD    4278190080
        0x00003d14:    700000e0    ...p    DCD    1879048416
        0x00003d18:    000000c0    ....    DCD    192
        0x00003d1c:    ffffff7f    ....    DCD    4294967167
        0x00003d20:    0000ffff    ....    DCD    65535
        0x00003d24:    003c0200    ..<.    DCD    3932672
        0x00003d28:    00ff0700    ....    DCD    16713472
        0x00003d2c:    00000000    ....    DCD    0
        0x00003d30:    00f07f00    ....    DCD    15761152
        0x00003d34:    00c0e000    ....    DCD    12640256
        0x00003d38:    ff0f0000    ....    DCD    4279173120
        0x00003d3c:    f0ffffff    ....    DCD    4043309055
        0x00003d40:    0e000000    ....    DCD    234881024
        0x00003d44:    0f00001c    ....    DCD    251658268
        0x00003d48:    000000fe    ....    DCD    254
        0x00003d4c:    3f000000    ...?    DCD    1056964608
        0x00003d50:    e00000f0    ....    DCD    3758096624
        0x00003d54:    000000c0    ....    DCD    192
        0x00003d58:    ffffff00    ....    DCD    4294967040
        0x00003d5c:    000000ff    ....    DCD    255
        0x00003d60:    000e0e00    ....    DCD    921088
        0x00003d64:    00fc0f00    ....    DCD    16518912
        0x00003d68:    00000000    ....    DCD    0
        0x00003d6c:    00f81f00    ....    DCD    16260864
        0x00003d70:    00c6c100    ....    DCD    13025536
        0x00003d74:    03000000    ....    DCD    50331648
        0x00003d78:    00c0ffff    ....    DCD    12648447
        0x00003d7c:    03000000    ....    DCD    50331648
        0x00003d80:    1f00c007    ....    DCD    520142855
        0x00003d84:    000000f8    ....    DCD    248
        0x00003d88:    1f000000    ....    DCD    520093696
        0x00003d8c:    c10000fc    ....    DCD    3238002940
        0x00003d90:    000000c7    ....    DCD    199
        0x00003d94:    00000000    ....    DCD    0
        0x00003d98:    00000000    ....    DCD    0
        0x00003d9c:    8083e100    ....    DCD    2156126464
        0x00003da0:    00f83f00    .?..    DCD    16269056
        0x00003da4:    00000000    ....    DCD    0
        0x00003da8:    00fe0f00    ....    DCD    16649984
        0x00003dac:    80874300    .C..    DCD    2156348160
        0x00003db0:    00000000    ....    DCD    0
        0x00003db4:    00000000    ....    DCD    0
        0x00003db8:    fc010000    ....    DCD    4227923968
        0x00003dbc:    7f000083    ....    DCD    2130706563
        0x00003dc0:    000000f0    ....    DCD    240
        0x00003dc4:    07000000    ....    DCD    117440512
        0x00003dc8:    3f0000ff    ...?    DCD    1056964863
        0x00003dcc:    0000008e    ....    DCD    142
        0x00003dd0:    00000000    ....    DCD    0
        0x00003dd4:    00000000    ....    DCD    0
        0x00003dd8:    00c0ff0c    ....    DCD    12648204
        0x00003ddc:    00e0ff00    ....    DCD    14745344
        0x00003de0:    00000000    ....    DCD    0
        0x00003de4:    80ff0300    ....    DCD    2164196096
        0x00003de8:    000e1e00    ....    DCD    925184
        0x00003dec:    00000000    ....    DCD    0
        0x00003df0:    00000000    ....    DCD    0
        0x00003df4:    4f180000    ...O    DCD    1326972928
        0x00003df8:    ff0100c0    ....    DCD    4278255808
        0x00003dfc:    000000c0    ....    DCD    192
        0x00003e00:    01000000    ....    DCD    16777216
        0x00003e04:    0000c0ff    ....    DCD    49407
        0x00003e08:    0000061c    ....    DCD    1564
        0x00003e0c:    00000000    ....    DCD    0
        0x00003e10:    00000000    ....    DCD    0
        0x00003e14:    00e02118    .!..    DCD    14688536
        0x00003e18:    0080ff03    ....    DCD    8453891
        0x00003e1c:    00000000    ....    DCD    0
        0x00003e20:    e0ff0000    ....    DCD    3774808064
        0x00003e24:    07380000    ..8.    DCD    121110528
        0x00003e28:    00000080    ....    DCD    128
        0x00003e2c:    00000000    ....    DCD    0
        0x00003e30:    30840100    ...0    DCD    813957376
        0x00003e34:    ff070060    `...    DCD    4278648928
        0x00003e38:    00000000    ....    DCD    0
        0x00003e3c:    00000000    ....    DCD    0
        0x00003e40:    0000f07f    ....    DCD    61567
        0x00003e44:    00200778    x. .    DCD    2099064
        0x00003e48:    00000000    ....    DCD    0
        0x00003e4c:    07000000    ....    DCD    117440512
        0x00003e50:    00001886    ....    DCD    6278
        0x00003e54:    0000fe0f    ....    DCD    65039
        0x00003e58:    00000000    ....    DCD    0
        0x00003e5c:    f83f0000    ..?.    DCD    4164878336
        0x00003e60:    07f00000    ....    DCD    133169152
        0x00003e64:    00000038    8...    DCD    56
        0x00003e68:    00000000    ....    DCD    0
        0x00003e6c:    0e820700    ....    DCD    243402496
        0x00003e70:    fc1f0000    ....    DCD    4229890048
        0x00003e74:    00000000    ....    DCD    0
        0x00003e78:    00000000    ....    DCD    0
        0x00003e7c:    0000fe1f    ....    DCD    65055
        0x00003e80:    00678731    1.g.    DCD    6784817
        0x00003e84:    00000000    ....    DCD    0
        0x00003e88:    81000000    ....    DCD    2164260864
        0x00003e8c:    00000cc3    ....    DCD    3267
        0x00003e90:    0000f87f    ....    DCD    63615
        0x00003e94:    00000000    ....    DCD    0
        0x00003e98:    ff0f0000    ....    DCD    4279173120
        0x00003e9c:    070f0000    ....    DCD    118423552
        0x00003ea0:    0000e0c7    ....    DCD    57543
        0x00003ea4:    00000000    ....    DCD    0
        0x00003ea8:    08c1c007    ....    DCD    146915335
        0x00003eac:    f0ff0000    ....    DCD    4043243520
        0x00003eb0:    00000000    ....    DCD    0
        0x00003eb4:    00000000    ....    DCD    0
        0x00003eb8:    0080ff07    ....    DCD    8453895
        0x00003ebc:    f88c0706    ....    DCD    4169926406
        0x00003ec0:    00000000    ....    DCD    0
        0x00003ec4:    c00c0000    ....    DCD    3222011904
        0x00003ec8:    010000e1    ....    DCD    16777441
        0x00003ecc:    0000e0ff    ....    DCD    57599
        0x00003ed0:    00000000    ....    DCD    0
        0x00003ed4:    ff030000    ....    DCD    4278386688
        0x00003ed8:    060000c0    ....    DCD    100663488
        0x00003edc:    00c0cd00    ....    DCD    12635392
        0x00003ee0:    02000000    ....    DCD    33554432
        0x00003ee4:    00634018    .@c.    DCD    6504472
        0x00003ee8:    c0ff0300    ....    DCD    3237937920
        0x00003eec:    00000000    ....    DCD    0
        0x00003ef0:    00000000    ....    DCD    0
        0x00003ef4:    00e0ff01    ....    DCD    14745345
        0x00003ef8:    cc010e00    ....    DCD    3422621184
        0x00003efc:    000000fc    ....    DCD    252
        0x00003f00:    00301e00    ..0.    DCD    3153408
        0x00003f04:    0700007e    ~...    DCD    117440638
        0x00003f08:    000080ff    ....    DCD    33023
        0x00003f0c:    00000000    ....    DCD    0
        0x00003f10:    ff000000    ....    DCD    4278190080
        0x00003f14:    1c0000f8    ....    DCD    469762296
        0x00003f18:    06e7c801    ....    DCD    115853313
        0x00003f1c:    9c030000    ....    DCD    2617442304
        0x00003f20:    003c0038    8.<.    DCD    3932216
        0x00003f24:    00ff1f00    ....    DCD    16719616
        0x00003f28:    00000000    ....    DCD    0
        0x00003f2c:    00000000    ....    DCD    0
        0x00003f30:    00fc7f00    ....    DCD    16547584
        0x00003f34:    80010600    ....    DCD    2147550720
        0x00003f38:    3dcf1fc3    ...=    DCD    1036984259
        0x00003f3c:    10380ee1    ..8.    DCD    272109281
        0x00003f40:    3f000000    ...?    DCD    1056964608
        0x00003f44:    000000fe    ....    DCD    254
        0x00003f48:    00000000    ....    DCD    0
        0x00003f4c:    3f000000    ...?    DCD    1056964608
        0x00003f50:    020000ff    ....    DCD    33554687
        0x00003f54:    38cb8103    ...8    DCD    952860931
        0x00003f58:    8ef13ccf    .<..    DCD    2398174415
        0x00003f5c:    00001038    8...    DCD    4152
        0x00003f60:    00fc7f00    ....    DCD    16547584
        0x00003f64:    00000000    ....    DCD    0
        0x00003f68:    00000000    ....    DCD    0
        0x00003f6c:    80ff1f00    ....    DCD    2164203264
        0x00003f70:    81030000    ....    DCD    2164457472
        0x00003f74:    184770f8    .pG.    DCD    407335160
        0x00003f78:    301c8679    y..0    DCD    807175801
        0x00003f7c:    ff010000    ....    DCD    4278255616
        0x00003f80:    000000f8    ....    DCD    248
        0x00003f84:    00000000    ....    DCD    0
        0x00003f88:    07000000    ....    DCD    117440512
        0x00003f8c:    0000c0ff    ....    DCD    49407
        0x00003f90:    70d8010f    ...p    DCD    1893204239
        0x00003f94:    875c1847    G.\.    DCD    2270959687
        0x00003f98:    0000600e    .`..    DCD    24590
        0x00003f9c:    00f0ff03    ....    DCD    15793923
        0x00003fa0:    00000000    ....    DCD    0
        0x00003fa4:    00000000    ....    DCD    0
        0x00003fa8:    f0ff0300    ....    DCD    4043244288
        0x00003fac:    81030000    ....    DCD    2164457472
        0x00003fb0:    f8077090    .p..    DCD    4161237136
        0x00003fb4:    c007874e    N...    DCD    3221718862
        0x00003fb8:    ff0f0000    ....    DCD    4279173120
        0x00003fbc:    000000c0    ....    DCD    192
        0x00003fc0:    00000000    ....    DCD    0
        0x00003fc4:    01000000    ....    DCD    16777216
        0x00003fc8:    0000fcff    ....    DCD    64767
        0x00003fcc:    70860300    ...p    DCD    1887830784
        0x00003fd0:    8747f807    ..G.    DCD    2269640711
        0x00003fd4:    00000000    ....    DCD    0
        0x00003fd8:    0080ff3f    ?...    DCD    8453951
        0x00003fdc:    00000000    ....    DCD    0
        0x00003fe0:    00000000    ....    DCD    0
        0x00003fe4:    fe7f0000    ....    DCD    4269735936
        0x00003fe8:    07000000    ....    DCD    117440512
        0x00003fec:    1847708c    .pG.    DCD    407335052
        0x00003ff0:    00808363    c...    DCD    8422243
        0x00003ff4:    ff7f0000    ....    DCD    4286513152
        0x00003ff8:    00000000    ....    DCD    0
        0x00003ffc:    00000000    ....    DCD    0
        0x00004000:    00000000    ....    DCD    0
        0x00004004:    0080ff3f    ?...    DCD    8453951
        0x00004008:    30fc0000    ...0    DCD    821821440
        0x0000400c:    876118c7    ..a.    DCD    2271287495
        0x00004010:    01000000    ....    DCD    16777216
        0x00004014:    0000fcff    ....    DCD    64767
        0x00004018:    00000000    ....    DCD    0
        0x0000401c:    00000000    ....    DCD    0
        0x00004020:    ff1f0000    ....    DCD    4280221696
        0x00004024:    000000e0    ....    DCD    224
        0x00004028:    18873908    .9..    DCD    411515144
        0x0000402c:    00008060    `...    DCD    32864
        0x00004030:    f8ff0700    ....    DCD    4177463040
        0x00004034:    00000000    ....    DCD    0
        0x00004038:    00000000    ....    DCD    0
        0x0000403c:    00000000    ....    DCD    0
        0x00004040:    00f8ff07    ....    DCD    16318215
        0x00004044:    0f000000    ....    DCD    251658240
        0x00004048:    00703c0f    .<p.    DCD    7355407
        0x0000404c:    1f000000    ....    DCD    520093696
        0x00004050:    0000e0ff    ....    DCD    57599
        0x00004054:    00000000    ....    DCD    0
        0x00004058:    00000000    ....    DCD    0
        0x0000405c:    ff030000    ....    DCD    4278386688
        0x00004060:    000000fe    ....    DCD    254
        0x00004064:    00000000    ....    DCD    0
        0x00004068:    00000000    ....    DCD    0
        0x0000406c:    c0ff7f00    ....    DCD    3237969664
        0x00004070:    00000000    ....    DCD    0
        0x00004074:    00000000    ....    DCD    0
        0x00004078:    00000000    ....    DCD    0
        0x0000407c:    80ffff00    ....    DCD    2164260608
        0x00004080:    00000000    ....    DCD    0
        0x00004084:    00000000    ....    DCD    0
        0x00004088:    ff010000    ....    DCD    4278255616
        0x0000408c:    000000ff    ....    DCD    255
        0x00004090:    00000000    ....    DCD    0
        0x00004094:    00000000    ....    DCD    0
        0x00004098:    7f000000    ....    DCD    2130706432
        0x0000409c:    0000e0ff    ....    DCD    57599
        0x000040a0:    00000000    ....    DCD    0
        0x000040a4:    00000000    ....    DCD    0
        0x000040a8:    00feff07    ....    DCD    16711431
        0x000040ac:    00000000    ....    DCD    0
        0x000040b0:    00000000    ....    DCD    0
        0x000040b4:    00000000    ....    DCD    0
        0x000040b8:    f8ff1f00    ....    DCD    4177469184
        0x000040bc:    00000000    ....    DCD    0
        0x000040c0:    00000000    ....    DCD    0
        0x000040c4:    ff1f0000    ....    DCD    4280221696
        0x000040c8:    000000f8    ....    DCD    248
        0x000040cc:    00000000    ....    DCD    0
        0x000040d0:    00000000    ....    DCD    0
        0x000040d4:    07000000    ....    DCD    117440512
        0x000040d8:    0000ffff    ....    DCD    65535
        0x000040dc:    00000000    ....    DCD    0
        0x000040e0:    00000000    ....    DCD    0
        0x000040e4:    00e0ffff    ....    DCD    14745599
        0x000040e8:    00000000    ....    DCD    0
        0x000040ec:    00000000    ....    DCD    0
        0x000040f0:    00000000    ....    DCD    0
        0x000040f4:    ffff0300    ....    DCD    4294902528
        0x000040f8:    000000c0    ....    DCD    192
        0x000040fc:    00000000    ....    DCD    0
        0x00004100:    ffff0300    ....    DCD    4294902528
        0x00004104:    000000c0    ....    DCD    192
        0x00004108:    00000000    ....    DCD    0
        0x0000410c:    00000000    ....    DCD    0
        0x00004110:    00000000    ....    DCD    0
        0x00004114:    00f8ffff    ....    DCD    16318463
        0x00004118:    00000000    ....    DCD    0
        0x0000411c:    1f000000    ....    DCD    520093696
        0x00004120:    0000ffff    ....    DCD    65535
        0x00004124:    00000000    ....    DCD    0
        0x00004128:    00000000    ....    DCD    0
        0x0000412c:    00000000    ....    DCD    0
        0x00004130:    ff3f0000    ..?.    DCD    4282318848
        0x00004134:    000080ff    ....    DCD    33023
        0x00004138:    00000000    ....    DCD    0
        0x0000413c:    fcffff01    ....    DCD    4244635393
        0x00004140:    00000000    ....    DCD    0
        0x00004144:    00000000    ....    DCD    0
        0x00004148:    00000000    ....    DCD    0
        0x0000414c:    00000000    ....    DCD    0
        0x00004150:    f0ffff0f    ....    DCD    4043308815
        0x00004154:    00000000    ....    DCD    0
        0x00004158:    ff0f0000    ....    DCD    4279173120
        0x0000415c:    0000f0ff    ....    DCD    61695
        0x00004160:    00000000    ....    DCD    0
        0x00004164:    00000000    ....    DCD    0
        0x00004168:    00000000    ....    DCD    0
        0x0000416c:    ff030000    ....    DCD    4278386688
        0x00004170:    0000ffff    ....    DCD    65535
        0x00004174:    00000000    ....    DCD    0
        0x00004178:    c0ffffff    ....    DCD    3238002687
        0x0000417c:    00000000    ....    DCD    0
        0x00004180:    00000000    ....    DCD    0
        0x00004184:    00000000    ....    DCD    0
        0x00004188:    00000000    ....    DCD    0
        0x0000418c:    ffff7f00    ....    DCD    4294934272
        0x00004190:    000000fc    ....    DCD    252
        0x00004194:    ffff3f00    .?..    DCD    4294917888
        0x00004198:    000000fe    ....    DCD    254
        0x0000419c:    00000000    ....    DCD    0
        0x000041a0:    00000000    ....    DCD    0
        0x000041a4:    00000000    ....    DCD    0
        0x000041a8:    1f000000    ....    DCD    520093696
        0x000041ac:    fcffffff    ....    DCD    4244635647
        0x000041b0:    ff1f0000    ....    DCD    4280221696
        0x000041b4:    00f8ffff    ....    DCD    16318463
        0x000041b8:    00000000    ....    DCD    0
        0x000041bc:    00000000    ....    DCD    0
        0x000041c0:    00000000    ....    DCD    0
        0x000041c4:    00000000    ....    DCD    0
        0x000041c8:    ffff0300    ....    DCD    4294902528
        0x000041cc:    ffffffff    ....    DCD    4294967295
        0x000041d0:    ffffffff    ....    DCD    4294967295
        0x000041d4:    000000c0    ....    DCD    192
        0x000041d8:    00000000    ....    DCD    0
        0x000041dc:    00000000    ....    DCD    0
        0x000041e0:    00000000    ....    DCD    0
        0x000041e4:    00000000    ....    DCD    0
        0x000041e8:    ffffffff    ....    DCD    4294967295
        0x000041ec:    ffffffff    ....    DCD    4294967295
        0x000041f0:    0000ffff    ....    DCD    65535
        0x000041f4:    00000000    ....    DCD    0
        0x000041f8:    00000000    ....    DCD    0
        0x000041fc:    00000000    ....    DCD    0
        0x00004200:    00000000    ....    DCD    0
        0x00004204:    ff1f0000    ....    DCD    4280221696
        0x00004208:    ffffffff    ....    DCD    4294967295
        0x0000420c:    f8ffffff    ....    DCD    4177526783
        0x00004210:    00000000    ....    DCD    0
        0x00004214:    00000000    ....    DCD    0
        0x00004218:    00000000    ....    DCD    0
        0x0000421c:    00000000    ....    DCD    0
        0x00004220:    00000000    ....    DCD    0
        0x00004224:    ffffff01    ....    DCD    4294967041
        0x00004228:    ffffffff    ....    DCD    4294967295
        0x0000422c:    000080ff    ....    DCD    33023
        0x00004230:    00000000    ....    DCD    0
        0x00004234:    00000000    ....    DCD    0
        0x00004238:    00000000    ....    DCD    0
        0x0000423c:    00000000    ....    DCD    0
        0x00004240:    3f000000    ...?    DCD    1056964608
        0x00004244:    ffffffff    ....    DCD    4294967295
        0x00004248:    00fcffff    ....    DCD    16580607
        0x0000424c:    00000000    ....    DCD    0
        0x00004250:    00000000    ....    DCD    0
        0x00004254:    00000000    ....    DCD    0
        0x00004258:    00000000    ....    DCD    0
        0x0000425c:    00000000    ....    DCD    0
        0x00004260:    ffff0100    ....    DCD    4294902016
        0x00004264:    ffffffff    ....    DCD    4294967295
        0x00004268:    00000080    ....    DCD    128
        0x0000426c:    00000000    ....    DCD    0
        0x00004270:    00000000    ....    DCD    0
        0x00004274:    00000000    ....    DCD    0
        0x00004278:    00000000    ....    DCD    0
        0x0000427c:    00000000    ....    DCD    0
        0x00004280:    ffffff0f    ....    DCD    4294967055
        0x00004284:    0000f0ff    ....    DCD    61695
        0x00004288:    00000000    ....    DCD    0
        0x0000428c:    00000000    ....    DCD    0
        0x00004290:    00000000    ....    DCD    0
        0x00004294:    00000000    ....    DCD    0
        0x00004298:    00000000    ....    DCD    0
        0x0000429c:    1f000000    ....    DCD    520093696
        0x000042a0:    00f8ffff    ....    DCD    16318463
        0x000042a4:    00000000    ....    DCD    0
        0x000042a8:    00000000    ....    DCD    0
        0x000042ac:    00000000    ....    DCD    0
    Region$$Table$$Base
        0x000042b0:    000042d0    .B..    DCD    17104
        0x000042b4:    20000000    ...     DCD    536870912
        0x000042b8:    0000001c    ....    DCD    28
        0x000042bc:    0000008c    ....    DCD    140
        0x000042c0:    000042ec    .B..    DCD    17132
        0x000042c4:    2000001c    ...     DCD    536870940
        0x000042c8:    0000a064    d...    DCD    41060
        0x000042cc:    000000a8    ....    DCD    168
    Region$$Table$$Limit

====================================

** Section #2

    Name        : RW_IRAM1
    Type        : SHT_PROGBITS (0x00000001)
    Flags       : SHF_ALLOC + SHF_WRITE (0x00000003)
    Addr        : 0x20000000
    File Offset : 17156 (0x4304)
    Size        : 28 bytes (0x1c)
    Link        : SHN_UNDEF
    Info        : 0
    Alignment   : 4
    Entry Size  : 0


====================================

** Section #3

    Name        : RW_IRAM1
    Type        : SHT_NOBITS (0x00000008)
    Flags       : SHF_ALLOC + SHF_WRITE (0x00000003)
    Addr        : 0x2000001c
    File Offset : 17184 (0x4320)
    Size        : 41060 bytes (0xa064)
    Link        : SHN_UNDEF
    Info        : 0
    Alignment   : 8
    Entry Size  : 0


====================================

** Section #4

    Name        : .debug_abbrev
    Type        : SHT_PROGBITS (0x00000001)
    Flags       : None (0x00000000)
    Addr        : 0x00000000
    File Offset : 17184 (0x4320)
    Size        : 1476 bytes (0x5c4)
    Link        : SHN_UNDEF
    Info        : 0
    Alignment   : 1
    Entry Size  : 0


====================================

** Section #5

    Name        : .debug_frame
    Type        : SHT_PROGBITS (0x00000001)
    Flags       : None (0x00000000)
    Addr        : 0x00000000
    File Offset : 18660 (0x48e4)
    Size        : 2264 bytes (0x8d8)
    Link        : SHN_UNDEF
    Info        : 0
    Alignment   : 1
    Entry Size  : 0


====================================

** Section #6

    Name        : .debug_info
    Type        : SHT_PROGBITS (0x00000001)
    Flags       : None (0x00000000)
    Addr        : 0x00000000
    File Offset : 20924 (0x51bc)
    Size        : 17508 bytes (0x4464)
    Link        : SHN_UNDEF
    Info        : 0
    Alignment   : 1
    Entry Size  : 0


====================================

** Section #7

    Name        : .debug_line
    Type        : SHT_PROGBITS (0x00000001)
    Flags       : None (0x00000000)
    Addr        : 0x00000000
    File Offset : 38432 (0x9620)
    Size        : 7708 bytes (0x1e1c)
    Link        : SHN_UNDEF
    Info        : 0
    Alignment   : 1
    Entry Size  : 0


====================================

** Section #8

    Name        : .debug_loc
    Type        : SHT_PROGBITS (0x00000001)
    Flags       : None (0x00000000)
    Addr        : 0x00000000
    File Offset : 46140 (0xb43c)
    Size        : 3176 bytes (0xc68)
    Link        : SHN_UNDEF
    Info        : 0
    Alignment   : 1
    Entry Size  : 0


====================================

** Section #9

    Name        : .debug_macinfo
    Type        : SHT_PROGBITS (0x00000001)
    Flags       : None (0x00000000)
    Addr        : 0x00000000
    File Offset : 49316 (0xc0a4)
    Size        : 5784 bytes (0x1698)
    Link        : SHN_UNDEF
    Info        : 0
    Alignment   : 1
    Entry Size  : 0


====================================

** Section #10

    Name        : .debug_pubnames
    Type        : SHT_PROGBITS (0x00000001)
    Flags       : None (0x00000000)
    Addr        : 0x00000000
    File Offset : 55100 (0xd73c)
    Size        : 2303 bytes (0x8ff)
    Link        : SHN_UNDEF
    Info        : 0
    Alignment   : 1
    Entry Size  : 0


====================================

** Section #11

    Name        : .symtab
    Type        : SHT_SYMTAB (0x00000002)
    Flags       : None (0x00000000)
    Addr        : 0x00000000
    File Offset : 57404 (0xe03c)
    Size        : 6384 bytes (0x18f0)
    Link        : Section 12 (.strtab)
    Info        : Last local symbol no = 248
    Alignment   : 4
    Entry Size  : 16


====================================

** Section #12

    Name        : .strtab
    Type        : SHT_STRTAB (0x00000003)
    Flags       : None (0x00000000)
    Addr        : 0x00000000
    File Offset : 63788 (0xf92c)
    Size        : 5624 bytes (0x15f8)
    Link        : SHN_UNDEF
    Info        : 0
    Alignment   : 1
    Entry Size  : 0


====================================

** Section #13

    Name        : .note
    Type        : SHT_NOTE (0x00000007)
    Flags       : None (0x00000000)
    Addr        : 0x00000000
    File Offset : 69412 (0x10f24)
    Size        : 28 bytes (0x1c)
    Link        : SHN_UNDEF
    Info        : 0
    Alignment   : 4
    Entry Size  : 0

        Section     Segment
    ====================================

              1           0
              2           0
              3           0

====================================

** Section #14

    Name        : .comment
    Type        : SHT_PROGBITS (0x00000001)
    Flags       : None (0x00000000)
    Addr        : 0x00000000
    File Offset : 69440 (0x10f40)
    Size        : 8944 bytes (0x22f0)
    Link        : SHN_UNDEF
    Info        : 0
    Alignment   : 1
    Entry Size  : 0

    Component: ARM Compiler 5.06 update 7 (build 960) Tool: armlink [4d3601]
    ArmLink --strict --callgraph --load_addr_map_info --map --symbols --xref --diag_suppress=9931 --cpu=Cortex-M3 --list=.\Listings\SOC_software.map --output=.\Objects\SOC_software.axf --scatter=.\Objects\SOC_software.sct --info=summarysizes,sizes,totals,veneers

    H:\software\MDK\ARM\ARMCC\Bin\..\lib\armlib\c_w.l
    H:\software\MDK\ARM\ARMCC\Bin\..\lib\armlib\fz_ws.l
    H:\software\MDK\ARM\ARMCC\Bin\..\lib\armlib\h_w.l
    H:\software\MDK\ARM\ARMCC\Bin\..\lib\armlib\m_ws.l
    H:\software\MDK\ARM\ARMCC\Bin\..\lib\armlib\vfpsupport.l
    Input Comments:
    
    main.o
    
    Component: ARM Compiler 5.06 update 7 (build 960) Tool: armlink [4d3601]
    armlink --partial --no_add_relocs_to_undefined --no_generate_mapping_symbols --diag_suppress=9931,9931,6642 --cpu=Cortex-M3 --fpu=SoftVFP --output=.\objects\main.o --vfemode=force

    Input Comments:
    
    p1ec4-3
    
    Component: ARM Compiler 5.06 update 7 (build 960) Tool: armasm [4d35fa]
    armasm --debug --diag_suppress=9931,9931,1602,1073 --cpu=Cortex-M3 --fpu=SoftVFP --apcs=/interwork/interwork --divide 
    main.o
    
    Component: ARM Compiler 5.06 update 7 (build 960) Tool: ArmCC [4d365d]
    ArmCC --split_sections --debug -c -o.\objects\main.o --depend=.\objects\main.d --cpu=Cortex-M3 --apcs=interwork -O0 --diag_suppress=9931 -I.\src -IH:\software\MDK\ARM\CMSIS\5.8.0\Device\ARM\ARMCM3\Include -IH:\software\MDK\ARM\CMSIS\Include -D__UVISION_VERSION=533 -DARMCM3 --omf_browse=.\objects\main.crf src\main.c
    
    
    cortexm3_driver.o
    
    Component: ARM Compiler 5.06 update 7 (build 960) Tool: armlink [4d3601]
    armlink --partial --no_add_relocs_to_undefined --no_generate_mapping_symbols --diag_suppress=9931,9931,6642 --cpu=Cortex-M3 --fpu=SoftVFP --output=.\objects\cortexm3_driver.o --vfemode=force

    Input Comments:
    
    p3904-3
    
    Component: ARM Compiler 5.06 update 7 (build 960) Tool: armasm [4d35fa]
    armasm --debug --diag_suppress=9931,9931,1602,1073 --cpu=Cortex-M3 --fpu=SoftVFP --apcs=/interwork/interwork --divide 
    cortexm3_driver.o
    
    Component: ARM Compiler 5.06 update 7 (build 960) Tool: ArmCC [4d365d]
    ArmCC --split_sections --debug -c -o.\objects\cortexm3_driver.o --depend=.\objects\cortexm3_driver.d --cpu=Cortex-M3 --apcs=interwork -O0 --diag_suppress=9931 -I.\src -IH:\software\MDK\ARM\CMSIS\5.8.0\Device\ARM\ARMCM3\Include -IH:\software\MDK\ARM\CMSIS\Include -D__UVISION_VERSION=533 -DARMCM3 --omf_browse=.\objects\cortexm3_driver.crf src\CortexM3_driver.c
    
    
    
    
    handler.o
    
    Component: ARM Compiler 5.06 update 7 (build 960) Tool: armlink [4d3601]
    armlink --partial --no_add_relocs_to_undefined --no_generate_mapping_symbols --diag_suppress=9931,9931,6642 --cpu=Cortex-M3 --fpu=SoftVFP --output=.\objects\handler.o --vfemode=force

    Input Comments:
    
    p302c-3
    
    Component: ARM Compiler 5.06 update 7 (build 960) Tool: armasm [4d35fa]
    armasm --debug --diag_suppress=9931,9931,1602,1073 --cpu=Cortex-M3 --fpu=SoftVFP --apcs=/interwork/interwork --divide 
    handler.o
    
    Component: ARM Compiler 5.06 update 7 (build 960) Tool: ArmCC [4d365d]
    ArmCC --split_sections --debug -c -o.\objects\handler.o --depend=.\objects\handler.d --cpu=Cortex-M3 --apcs=interwork -O0 --diag_suppress=9931 -I.\src -IH:\software\MDK\ARM\CMSIS\5.8.0\Device\ARM\ARMCM3\Include -IH:\software\MDK\ARM\CMSIS\Include -D__UVISION_VERSION=533 -DARMCM3 --omf_browse=.\objects\handler.crf src\handler.c
    
    
    
    
    retarget.o
    
    Component: ARM Compiler 5.06 update 7 (build 960) Tool: armlink [4d3601]
    armlink --partial --no_add_relocs_to_undefined --no_generate_mapping_symbols --diag_suppress=9931,9931,6642 --cpu=Cortex-M3 --fpu=SoftVFP --output=.\objects\retarget.o --vfemode=force

    Input Comments:
    
    p3e28-3
    
    Component: ARM Compiler 5.06 update 7 (build 960) Tool: armasm [4d35fa]
    armasm --debug --diag_suppress=9931,9931,1602,1073 --cpu=Cortex-M3 --fpu=SoftVFP --apcs=/interwork/interwork --divide 
    retarget.o
    
    Component: ARM Compiler 5.06 update 7 (build 960) Tool: ArmCC [4d365d]
    ArmCC --split_sections --debug -c -o.\objects\retarget.o --depend=.\objects\retarget.d --cpu=Cortex-M3 --apcs=interwork -O0 --diag_suppress=9931 -I.\src -IH:\software\MDK\ARM\CMSIS\5.8.0\Device\ARM\ARMCM3\Include -IH:\software\MDK\ARM\CMSIS\Include -D__UVISION_VERSION=533 -DARMCM3 --omf_browse=.\objects\retarget.crf src\Retarget.c
    
    
    system.o
    
    Component: ARM Compiler 5.06 update 7 (build 960) Tool: armlink [4d3601]
    armlink --partial --no_add_relocs_to_undefined --no_generate_mapping_symbols --diag_suppress=9931,9931,6642 --cpu=Cortex-M3 --fpu=SoftVFP --output=.\objects\system.o --vfemode=force

    Input Comments:
    
    p1104-3
    
    Component: ARM Compiler 5.06 update 7 (build 960) Tool: armasm [4d35fa]
    armasm --debug --diag_suppress=9931,9931,1602,1073 --cpu=Cortex-M3 --fpu=SoftVFP --apcs=/interwork/interwork --divide 
    system.o
    
    Component: ARM Compiler 5.06 update 7 (build 960) Tool: ArmCC [4d365d]
    ArmCC --split_sections --debug -c -o.\objects\system.o --depend=.\objects\system.d --cpu=Cortex-M3 --apcs=interwork -O0 --diag_suppress=9931 -I.\src -IH:\software\MDK\ARM\CMSIS\5.8.0\Device\ARM\ARMCM3\Include -IH:\software\MDK\ARM\CMSIS\Include -D__UVISION_VERSION=533 -DARMCM3 --omf_browse=.\objects\system.crf src\system.c
    
    
    startup_cm3ds.o
    
    Component: ARM Compiler 5.06 update 7 (build 960) Tool: armasm [4d35fa]
    ArmAsm --debug --xref --diag_suppress=9931 --cpu=Cortex-M3 --apcs=interwork --depend=.\objects\startup_cm3ds.d  -IH:\software\MDK\ARM\CMSIS\5.8.0\Device\ARM\ARMCM3\Include -IH:\software\MDK\ARM\CMSIS\Include --predefine="__UVISION_VERS
    
    
    gpio.o
    
    Component: ARM Compiler 5.06 update 7 (build 960) Tool: armlink [4d3601]
    armlink --partial --no_add_relocs_to_undefined --no_generate_mapping_symbols --diag_suppress=9931,9931,6642 --cpu=Cortex-M3 --fpu=SoftVFP --output=.\objects\gpio.o --vfemode=force

    Input Comments:
    
    p3540-3
    
    Component: ARM Compiler 5.06 update 7 (build 960) Tool: armasm [4d35fa]
    armasm --debug --diag_suppress=9931,9931,1602,1073 --cpu=Cortex-M3 --fpu=SoftVFP --apcs=/interwork/interwork --divide 
    gpio.o
    
    Component: ARM Compiler 5.06 update 7 (build 960) Tool: ArmCC [4d365d]
    ArmCC --split_sections --debug -c -o.\objects\gpio.o --depend=.\objects\gpio.d --cpu=Cortex-M3 --apcs=interwork -O0 --diag_suppress=9931 -I.\src -IH:\software\MDK\ARM\CMSIS\5.8.0\Device\ARM\ARMCM3\Include -IH:\software\MDK\ARM\CMSIS\Include -D__UVISION_VERSION=533 -DARMCM3 --omf_browse=.\objects\gpio.crf src\GPIO.c
    
    
    delay.o
    
    Component: ARM Compiler 5.06 update 7 (build 960) Tool: ArmCC [4d365d]
    ArmCC --split_sections --debug -c -o.\objects\delay.o --depend=.\objects\delay.d --cpu=Cortex-M3 --apcs=interwork -O0 --diag_suppress=9931 -I.\src -IH:\software\MDK\ARM\CMSIS\5.8.0\Device\ARM\ARMCM3\Include -IH:\software\MDK\ARM\CMSIS\Include -D__UVISION_VERSION=533 -DARMCM3 --omf_browse=.\objects\delay.crf src\delay.c
    
    smartcamera.o
    
    Component: ARM Compiler 5.06 update 7 (build 960) Tool: armlink [4d3601]
    armlink --partial --no_add_relocs_to_undefined --no_generate_mapping_symbols --diag_suppress=9931,9931,6642 --cpu=Cortex-M3 --fpu=SoftVFP --output=.\objects\smartcamera.o --vfemode=force

    Input Comments:
    
    p200-3
    
    Component: ARM Compiler 5.06 update 7 (build 960) Tool: armasm [4d35fa]
    armasm --debug --diag_suppress=9931,9931,1602,1073 --cpu=Cortex-M3 --fpu=SoftVFP --apcs=/interwork/interwork --divide 
    smartcamera.o
    
    Component: ARM Compiler 5.06 update 7 (build 960) Tool: ArmCC [4d365d]
    ArmCC --split_sections --debug -c -o.\objects\smartcamera.o --depend=.\objects\smartcamera.d --cpu=Cortex-M3 --apcs=interwork -O0 --diag_suppress=9931 -I.\src -IH:\software\MDK\ARM\CMSIS\5.8.0\Device\ARM\ARMCM3\Include -IH:\software\MDK\ARM\CMSIS\Include -D__UVISION_VERSION=533 -DARMCM3 --omf_browse=.\objects\smartcamera.crf src\SmartCamera.c
    
    
    
    
    
    lcd.o
    
    Component: ARM Compiler 5.06 update 7 (build 960) Tool: ArmCC [4d365d]
    ArmCC --split_sections --debug -c -o.\objects\lcd.o --depend=.\objects\lcd.d --cpu=Cortex-M3 --apcs=interwork -O0 --diag_suppress=9931 -I.\src -IH:\software\MDK\ARM\CMSIS\5.8.0\Device\ARM\ARMCM3\Include -IH:\software\MDK\ARM\CMSIS\Include -D__UVISION_VERSION=533 -DARMCM3 --omf_browse=.\objects\lcd.crf src\lcd.c
    
    misc.o
    
    Component: ARM Compiler 5.06 update 7 (build 960) Tool: armlink [4d3601]
    armlink --partial --no_add_relocs_to_undefined --no_generate_mapping_symbols --diag_suppress=9931,9931,6642 --cpu=Cortex-M3 --fpu=SoftVFP --output=.\objects\misc.o --vfemode=force

    Input Comments:
    
    p2140-3
    
    Component: ARM Compiler 5.06 update 7 (build 960) Tool: armasm [4d35fa]
    armasm --debug --diag_suppress=9931,9931,1602,1073 --cpu=Cortex-M3 --fpu=SoftVFP --apcs=/interwork/interwork --divide 
    misc.o
    
    Component: ARM Compiler 5.06 update 7 (build 960) Tool: ArmCC [4d365d]
    ArmCC --split_sections --debug -c -o.\objects\misc.o --depend=.\objects\misc.d --cpu=Cortex-M3 --apcs=interwork -O0 --diag_suppress=9931 -I.\src -IH:\software\MDK\ARM\CMSIS\5.8.0\Device\ARM\ARMCM3\Include -IH:\software\MDK\ARM\CMSIS\Include -D__UVISION_VERSION=533 -DARMCM3 --omf_browse=.\objects\misc.crf src\misc.c
    
    
    
    

====================================

** Section #15

    Name        : .shstrtab
    Type        : SHT_STRTAB (0x00000003)
    Flags       : None (0x00000000)
    Addr        : 0x00000000
    File Offset : 78384 (0x13230)
    Size        : 156 bytes (0x9c)
    Link        : SHN_UNDEF
    Info        : 0
    Alignment   : 1
    Entry Size  : 0


====================================

